
./build/kernel.bin:     file format elf32-i386


Disassembly of section .text:

c0001500 <main>:
c0001500:	8d 4c 24 04          	lea    0x4(%esp),%ecx
c0001504:	83 e4 f0             	and    $0xfffffff0,%esp
c0001507:	ff 71 fc             	push   -0x4(%ecx)
c000150a:	55                   	push   %ebp
c000150b:	89 e5                	mov    %esp,%ebp
c000150d:	51                   	push   %ecx
c000150e:	83 ec 04             	sub    $0x4,%esp
c0001511:	83 ec 0c             	sub    $0xc,%esp
c0001514:	68 cc 46 00 c0       	push   $0xc00046cc
c0001519:	e8 42 2b 00 00       	call   c0004060 <put_str>
c000151e:	83 c4 10             	add    $0x10,%esp
c0001521:	83 ec 0c             	sub    $0xc,%esp
c0001524:	68 d9 46 00 c0       	push   $0xc00046d9
c0001529:	e8 32 2b 00 00       	call   c0004060 <put_str>
c000152e:	83 c4 10             	add    $0x10,%esp
c0001531:	e8 f5 00 00 00       	call   c000162b <init_all>
c0001536:	68 e2 46 00 c0       	push   $0xc00046e2
c000153b:	68 99 15 00 c0       	push   $0xc0001599
c0001540:	6a 1f                	push   $0x1f
c0001542:	68 e8 46 00 c0       	push   $0xc00046e8
c0001547:	e8 83 16 00 00       	call   c0002bcf <thread_start>
c000154c:	83 c4 10             	add    $0x10,%esp
c000154f:	68 f3 46 00 c0       	push   $0xc00046f3
c0001554:	68 d2 15 00 c0       	push   $0xc00015d2
c0001559:	6a 1f                	push   $0x1f
c000155b:	68 f9 46 00 c0       	push   $0xc00046f9
c0001560:	e8 6a 16 00 00       	call   c0002bcf <thread_start>
c0001565:	83 c4 10             	add    $0x10,%esp
c0001568:	83 ec 08             	sub    $0x8,%esp
c000156b:	68 04 47 00 c0       	push   $0xc0004704
c0001570:	68 0b 16 00 c0       	push   $0xc000160b
c0001575:	e8 48 30 00 00       	call   c00045c2 <process_execute>
c000157a:	83 c4 10             	add    $0x10,%esp
c000157d:	83 ec 08             	sub    $0x8,%esp
c0001580:	68 10 47 00 c0       	push   $0xc0004710
c0001585:	68 1b 16 00 c0       	push   $0xc000161b
c000158a:	e8 33 30 00 00       	call   c00045c2 <process_execute>
c000158f:	83 c4 10             	add    $0x10,%esp
c0001592:	e8 ef 03 00 00       	call   c0001986 <intr_enable>
c0001597:	eb fe                	jmp    c0001597 <main+0x97>

c0001599 <k_thread_a>:
c0001599:	55                   	push   %ebp
c000159a:	89 e5                	mov    %esp,%ebp
c000159c:	83 ec 08             	sub    $0x8,%esp
c000159f:	83 ec 0c             	sub    $0xc,%esp
c00015a2:	68 1c 47 00 c0       	push   $0xc000471c
c00015a7:	e8 81 1f 00 00       	call   c000352d <console_put_str>
c00015ac:	83 c4 10             	add    $0x10,%esp
c00015af:	a1 20 65 00 c0       	mov    0xc0006520,%eax
c00015b4:	83 ec 0c             	sub    $0xc,%esp
c00015b7:	50                   	push   %eax
c00015b8:	e8 ba 1f 00 00       	call   c0003577 <console_put_int>
c00015bd:	83 c4 10             	add    $0x10,%esp
c00015c0:	83 ec 0c             	sub    $0xc,%esp
c00015c3:	68 24 47 00 c0       	push   $0xc0004724
c00015c8:	e8 60 1f 00 00       	call   c000352d <console_put_str>
c00015cd:	83 c4 10             	add    $0x10,%esp
c00015d0:	eb cd                	jmp    c000159f <k_thread_a+0x6>

c00015d2 <k_thread_b>:
c00015d2:	55                   	push   %ebp
c00015d3:	89 e5                	mov    %esp,%ebp
c00015d5:	83 ec 08             	sub    $0x8,%esp
c00015d8:	83 ec 0c             	sub    $0xc,%esp
c00015db:	68 26 47 00 c0       	push   $0xc0004726
c00015e0:	e8 48 1f 00 00       	call   c000352d <console_put_str>
c00015e5:	83 c4 10             	add    $0x10,%esp
c00015e8:	a1 24 65 00 c0       	mov    0xc0006524,%eax
c00015ed:	83 ec 0c             	sub    $0xc,%esp
c00015f0:	50                   	push   %eax
c00015f1:	e8 81 1f 00 00       	call   c0003577 <console_put_int>
c00015f6:	83 c4 10             	add    $0x10,%esp
c00015f9:	83 ec 0c             	sub    $0xc,%esp
c00015fc:	68 24 47 00 c0       	push   $0xc0004724
c0001601:	e8 27 1f 00 00       	call   c000352d <console_put_str>
c0001606:	83 c4 10             	add    $0x10,%esp
c0001609:	eb cd                	jmp    c00015d8 <k_thread_b+0x6>

c000160b <u_prog_a>:
c000160b:	55                   	push   %ebp
c000160c:	89 e5                	mov    %esp,%ebp
c000160e:	a1 20 65 00 c0       	mov    0xc0006520,%eax
c0001613:	40                   	inc    %eax
c0001614:	a3 20 65 00 c0       	mov    %eax,0xc0006520
c0001619:	eb f3                	jmp    c000160e <u_prog_a+0x3>

c000161b <u_prog_b>:
c000161b:	55                   	push   %ebp
c000161c:	89 e5                	mov    %esp,%ebp
c000161e:	a1 24 65 00 c0       	mov    0xc0006524,%eax
c0001623:	40                   	inc    %eax
c0001624:	a3 24 65 00 c0       	mov    %eax,0xc0006524
c0001629:	eb f3                	jmp    c000161e <u_prog_b+0x3>

c000162b <init_all>:
c000162b:	55                   	push   %ebp
c000162c:	89 e5                	mov    %esp,%ebp
c000162e:	83 ec 08             	sub    $0x8,%esp
c0001631:	83 ec 0c             	sub    $0xc,%esp
c0001634:	68 2e 47 00 c0       	push   $0xc000472e
c0001639:	e8 22 2a 00 00       	call   c0004060 <put_str>
c000163e:	83 c4 10             	add    $0x10,%esp
c0001641:	e8 ea 03 00 00       	call   c0001a30 <idt_init>
c0001646:	e8 6b 05 00 00       	call   c0001bb6 <timer_init>
c000164b:	e8 03 14 00 00       	call   c0002a53 <mem_init>
c0001650:	e8 45 19 00 00       	call   c0002f9a <thread_init>
c0001655:	e8 88 1e 00 00       	call   c00034e2 <console_init>
c000165a:	e8 a3 21 00 00       	call   c0003802 <keyboard_init>
c000165f:	e8 0a 2c 00 00       	call   c000426e <tss_init>
c0001664:	90                   	nop
c0001665:	c9                   	leave  
c0001666:	c3                   	ret    

c0001667 <outb>:
c0001667:	55                   	push   %ebp
c0001668:	89 e5                	mov    %esp,%ebp
c000166a:	83 ec 08             	sub    $0x8,%esp
c000166d:	8b 45 08             	mov    0x8(%ebp),%eax
c0001670:	8b 55 0c             	mov    0xc(%ebp),%edx
c0001673:	66 89 45 fc          	mov    %ax,-0x4(%ebp)
c0001677:	88 d0                	mov    %dl,%al
c0001679:	88 45 f8             	mov    %al,-0x8(%ebp)
c000167c:	8a 45 f8             	mov    -0x8(%ebp),%al
c000167f:	8b 55 fc             	mov    -0x4(%ebp),%edx
c0001682:	ee                   	out    %al,(%dx)
c0001683:	90                   	nop
c0001684:	c9                   	leave  
c0001685:	c3                   	ret    

c0001686 <pic_init>:
c0001686:	55                   	push   %ebp
c0001687:	89 e5                	mov    %esp,%ebp
c0001689:	83 ec 08             	sub    $0x8,%esp
c000168c:	6a 11                	push   $0x11
c000168e:	6a 20                	push   $0x20
c0001690:	e8 d2 ff ff ff       	call   c0001667 <outb>
c0001695:	83 c4 08             	add    $0x8,%esp
c0001698:	6a 20                	push   $0x20
c000169a:	6a 21                	push   $0x21
c000169c:	e8 c6 ff ff ff       	call   c0001667 <outb>
c00016a1:	83 c4 08             	add    $0x8,%esp
c00016a4:	6a 04                	push   $0x4
c00016a6:	6a 21                	push   $0x21
c00016a8:	e8 ba ff ff ff       	call   c0001667 <outb>
c00016ad:	83 c4 08             	add    $0x8,%esp
c00016b0:	6a 01                	push   $0x1
c00016b2:	6a 21                	push   $0x21
c00016b4:	e8 ae ff ff ff       	call   c0001667 <outb>
c00016b9:	83 c4 08             	add    $0x8,%esp
c00016bc:	6a 11                	push   $0x11
c00016be:	68 a0 00 00 00       	push   $0xa0
c00016c3:	e8 9f ff ff ff       	call   c0001667 <outb>
c00016c8:	83 c4 08             	add    $0x8,%esp
c00016cb:	6a 28                	push   $0x28
c00016cd:	68 a1 00 00 00       	push   $0xa1
c00016d2:	e8 90 ff ff ff       	call   c0001667 <outb>
c00016d7:	83 c4 08             	add    $0x8,%esp
c00016da:	6a 02                	push   $0x2
c00016dc:	68 a1 00 00 00       	push   $0xa1
c00016e1:	e8 81 ff ff ff       	call   c0001667 <outb>
c00016e6:	83 c4 08             	add    $0x8,%esp
c00016e9:	6a 01                	push   $0x1
c00016eb:	68 a1 00 00 00       	push   $0xa1
c00016f0:	e8 72 ff ff ff       	call   c0001667 <outb>
c00016f5:	83 c4 08             	add    $0x8,%esp
c00016f8:	68 fc 00 00 00       	push   $0xfc
c00016fd:	6a 21                	push   $0x21
c00016ff:	e8 63 ff ff ff       	call   c0001667 <outb>
c0001704:	83 c4 08             	add    $0x8,%esp
c0001707:	68 ff 00 00 00       	push   $0xff
c000170c:	68 a1 00 00 00       	push   $0xa1
c0001711:	e8 51 ff ff ff       	call   c0001667 <outb>
c0001716:	83 c4 08             	add    $0x8,%esp
c0001719:	83 ec 0c             	sub    $0xc,%esp
c000171c:	68 38 47 00 c0       	push   $0xc0004738
c0001721:	e8 3a 29 00 00       	call   c0004060 <put_str>
c0001726:	83 c4 10             	add    $0x10,%esp
c0001729:	90                   	nop
c000172a:	c9                   	leave  
c000172b:	c3                   	ret    

c000172c <make_idt_desc>:
c000172c:	55                   	push   %ebp
c000172d:	89 e5                	mov    %esp,%ebp
c000172f:	83 ec 04             	sub    $0x4,%esp
c0001732:	8b 45 0c             	mov    0xc(%ebp),%eax
c0001735:	88 45 fc             	mov    %al,-0x4(%ebp)
c0001738:	8b 45 10             	mov    0x10(%ebp),%eax
c000173b:	8b 55 08             	mov    0x8(%ebp),%edx
c000173e:	66 89 02             	mov    %ax,(%edx)
c0001741:	8b 45 08             	mov    0x8(%ebp),%eax
c0001744:	66 c7 40 02 08 00    	movw   $0x8,0x2(%eax)
c000174a:	8b 45 08             	mov    0x8(%ebp),%eax
c000174d:	c6 40 04 00          	movb   $0x0,0x4(%eax)
c0001751:	8b 45 08             	mov    0x8(%ebp),%eax
c0001754:	8a 55 fc             	mov    -0x4(%ebp),%dl
c0001757:	88 50 05             	mov    %dl,0x5(%eax)
c000175a:	8b 45 10             	mov    0x10(%ebp),%eax
c000175d:	c1 e8 10             	shr    $0x10,%eax
c0001760:	8b 55 08             	mov    0x8(%ebp),%edx
c0001763:	66 89 42 06          	mov    %ax,0x6(%edx)
c0001767:	90                   	nop
c0001768:	c9                   	leave  
c0001769:	c3                   	ret    

c000176a <idt_desc_init>:
c000176a:	55                   	push   %ebp
c000176b:	89 e5                	mov    %esp,%ebp
c000176d:	83 ec 18             	sub    $0x18,%esp
c0001770:	c7 45 f4 00 00 00 00 	movl   $0x0,-0xc(%ebp)
c0001777:	eb 28                	jmp    c00017a1 <idt_desc_init+0x37>
c0001779:	8b 45 f4             	mov    -0xc(%ebp),%eax
c000177c:	8b 04 85 4a 64 00 c0 	mov    -0x3fff9bb6(,%eax,4),%eax
c0001783:	8b 55 f4             	mov    -0xc(%ebp),%edx
c0001786:	c1 e2 03             	shl    $0x3,%edx
c0001789:	81 c2 c0 66 00 c0    	add    $0xc00066c0,%edx
c000178f:	50                   	push   %eax
c0001790:	68 8e 00 00 00       	push   $0x8e
c0001795:	52                   	push   %edx
c0001796:	e8 91 ff ff ff       	call   c000172c <make_idt_desc>
c000179b:	83 c4 0c             	add    $0xc,%esp
c000179e:	ff 45 f4             	incl   -0xc(%ebp)
c00017a1:	83 7d f4 2f          	cmpl   $0x2f,-0xc(%ebp)
c00017a5:	7e d2                	jle    c0001779 <idt_desc_init+0xf>
c00017a7:	83 ec 0c             	sub    $0xc,%esp
c00017aa:	68 4a 47 00 c0       	push   $0xc000474a
c00017af:	e8 ac 28 00 00       	call   c0004060 <put_str>
c00017b4:	83 c4 10             	add    $0x10,%esp
c00017b7:	90                   	nop
c00017b8:	c9                   	leave  
c00017b9:	c3                   	ret    

c00017ba <general_intr_handler>:
c00017ba:	55                   	push   %ebp
c00017bb:	89 e5                	mov    %esp,%ebp
c00017bd:	83 ec 28             	sub    $0x28,%esp
c00017c0:	8b 45 08             	mov    0x8(%ebp),%eax
c00017c3:	88 45 e4             	mov    %al,-0x1c(%ebp)
c00017c6:	80 7d e4 27          	cmpb   $0x27,-0x1c(%ebp)
c00017ca:	0f 84 be 00 00 00    	je     c000188e <general_intr_handler+0xd4>
c00017d0:	80 7d e4 2f          	cmpb   $0x2f,-0x1c(%ebp)
c00017d4:	0f 84 b4 00 00 00    	je     c000188e <general_intr_handler+0xd4>
c00017da:	83 ec 0c             	sub    $0xc,%esp
c00017dd:	6a 00                	push   $0x0
c00017df:	e8 ca 29 00 00       	call   c00041ae <set_cursor>
c00017e4:	83 c4 10             	add    $0x10,%esp
c00017e7:	c7 45 f4 00 00 00 00 	movl   $0x0,-0xc(%ebp)
c00017ee:	eb 10                	jmp    c0001800 <general_intr_handler+0x46>
c00017f0:	83 ec 0c             	sub    $0xc,%esp
c00017f3:	6a 20                	push   $0x20
c00017f5:	e8 84 28 00 00       	call   c000407e <put_char>
c00017fa:	83 c4 10             	add    $0x10,%esp
c00017fd:	ff 45 f4             	incl   -0xc(%ebp)
c0001800:	81 7d f4 3f 01 00 00 	cmpl   $0x13f,-0xc(%ebp)
c0001807:	7e e7                	jle    c00017f0 <general_intr_handler+0x36>
c0001809:	83 ec 0c             	sub    $0xc,%esp
c000180c:	6a 00                	push   $0x0
c000180e:	e8 9b 29 00 00       	call   c00041ae <set_cursor>
c0001813:	83 c4 10             	add    $0x10,%esp
c0001816:	83 ec 0c             	sub    $0xc,%esp
c0001819:	68 64 47 00 c0       	push   $0xc0004764
c000181e:	e8 3d 28 00 00       	call   c0004060 <put_str>
c0001823:	83 c4 10             	add    $0x10,%esp
c0001826:	83 ec 0c             	sub    $0xc,%esp
c0001829:	6a 58                	push   $0x58
c000182b:	e8 7e 29 00 00       	call   c00041ae <set_cursor>
c0001830:	83 c4 10             	add    $0x10,%esp
c0001833:	0f b6 45 e4          	movzbl -0x1c(%ebp),%eax
c0001837:	8b 04 85 40 65 00 c0 	mov    -0x3fff9ac0(,%eax,4),%eax
c000183e:	83 ec 0c             	sub    $0xc,%esp
c0001841:	50                   	push   %eax
c0001842:	e8 19 28 00 00       	call   c0004060 <put_str>
c0001847:	83 c4 10             	add    $0x10,%esp
c000184a:	80 7d e4 0e          	cmpb   $0xe,-0x1c(%ebp)
c000184e:	75 2c                	jne    c000187c <general_intr_handler+0xc2>
c0001850:	c7 45 f0 00 00 00 00 	movl   $0x0,-0x10(%ebp)
c0001857:	0f 20 d0             	mov    %cr2,%eax
c000185a:	89 45 f0             	mov    %eax,-0x10(%ebp)
c000185d:	83 ec 0c             	sub    $0xc,%esp
c0001860:	68 94 47 00 c0       	push   $0xc0004794
c0001865:	e8 f6 27 00 00       	call   c0004060 <put_str>
c000186a:	83 c4 10             	add    $0x10,%esp
c000186d:	8b 45 f0             	mov    -0x10(%ebp),%eax
c0001870:	83 ec 0c             	sub    $0xc,%esp
c0001873:	50                   	push   %eax
c0001874:	e8 d2 28 00 00       	call   c000414b <put_int>
c0001879:	83 c4 10             	add    $0x10,%esp
c000187c:	83 ec 0c             	sub    $0xc,%esp
c000187f:	68 ac 47 00 c0       	push   $0xc00047ac
c0001884:	e8 d7 27 00 00       	call   c0004060 <put_str>
c0001889:	83 c4 10             	add    $0x10,%esp
c000188c:	eb fe                	jmp    c000188c <general_intr_handler+0xd2>
c000188e:	90                   	nop
c000188f:	c9                   	leave  
c0001890:	c3                   	ret    

c0001891 <exception_init>:
c0001891:	55                   	push   %ebp
c0001892:	89 e5                	mov    %esp,%ebp
c0001894:	83 ec 10             	sub    $0x10,%esp
c0001897:	c7 45 fc 00 00 00 00 	movl   $0x0,-0x4(%ebp)
c000189e:	eb 1f                	jmp    c00018bf <exception_init+0x2e>
c00018a0:	8b 45 fc             	mov    -0x4(%ebp),%eax
c00018a3:	c7 04 85 00 66 00 c0 	movl   $0xc00017ba,-0x3fff9a00(,%eax,4)
c00018aa:	ba 17 00 c0 
c00018ae:	8b 45 fc             	mov    -0x4(%ebp),%eax
c00018b1:	c7 04 85 40 65 00 c0 	movl   $0xc00047dd,-0x3fff9ac0(,%eax,4)
c00018b8:	dd 47 00 c0 
c00018bc:	ff 45 fc             	incl   -0x4(%ebp)
c00018bf:	83 7d fc 2f          	cmpl   $0x2f,-0x4(%ebp)
c00018c3:	7e db                	jle    c00018a0 <exception_init+0xf>
c00018c5:	c7 05 40 65 00 c0 e5 	movl   $0xc00047e5,0xc0006540
c00018cc:	47 00 c0 
c00018cf:	c7 05 44 65 00 c0 f6 	movl   $0xc00047f6,0xc0006544
c00018d6:	47 00 c0 
c00018d9:	c7 05 48 65 00 c0 0a 	movl   $0xc000480a,0xc0006548
c00018e0:	48 00 c0 
c00018e3:	c7 05 4c 65 00 c0 18 	movl   $0xc0004818,0xc000654c
c00018ea:	48 00 c0 
c00018ed:	c7 05 50 65 00 c0 31 	movl   $0xc0004831,0xc0006550
c00018f4:	48 00 c0 
c00018f7:	c7 05 54 65 00 c0 48 	movl   $0xc0004848,0xc0006554
c00018fe:	48 00 c0 
c0001901:	c7 05 58 65 00 c0 6b 	movl   $0xc000486b,0xc0006558
c0001908:	48 00 c0 
c000190b:	c7 05 5c 65 00 c0 88 	movl   $0xc0004888,0xc000655c
c0001912:	48 00 c0 
c0001915:	c7 05 60 65 00 c0 ab 	movl   $0xc00048ab,0xc0006560
c000191c:	48 00 c0 
c000191f:	c7 05 64 65 00 c0 c6 	movl   $0xc00048c6,0xc0006564
c0001926:	48 00 c0 
c0001929:	c7 05 68 65 00 c0 e2 	movl   $0xc00048e2,0xc0006568
c0001930:	48 00 c0 
c0001933:	c7 05 6c 65 00 c0 fc 	movl   $0xc00048fc,0xc000656c
c000193a:	48 00 c0 
c000193d:	c7 05 70 65 00 c0 14 	movl   $0xc0004914,0xc0006570
c0001944:	49 00 c0 
c0001947:	c7 05 74 65 00 c0 30 	movl   $0xc0004930,0xc0006574
c000194e:	49 00 c0 
c0001951:	c7 05 78 65 00 c0 51 	movl   $0xc0004951,0xc0006578
c0001958:	49 00 c0 
c000195b:	c7 05 80 65 00 c0 6c 	movl   $0xc000496c,0xc0006580
c0001962:	49 00 c0 
c0001965:	c7 05 84 65 00 c0 8d 	movl   $0xc000498d,0xc0006584
c000196c:	49 00 c0 
c000196f:	c7 05 88 65 00 c0 ab 	movl   $0xc00049ab,0xc0006588
c0001976:	49 00 c0 
c0001979:	c7 05 8c 65 00 c0 c8 	movl   $0xc00049c8,0xc000658c
c0001980:	49 00 c0 
c0001983:	90                   	nop
c0001984:	c9                   	leave  
c0001985:	c3                   	ret    

c0001986 <intr_enable>:
c0001986:	55                   	push   %ebp
c0001987:	89 e5                	mov    %esp,%ebp
c0001989:	83 ec 18             	sub    $0x18,%esp
c000198c:	e8 65 00 00 00       	call   c00019f6 <intr_get_status>
c0001991:	83 f8 01             	cmp    $0x1,%eax
c0001994:	75 0c                	jne    c00019a2 <intr_enable+0x1c>
c0001996:	c7 45 f4 01 00 00 00 	movl   $0x1,-0xc(%ebp)
c000199d:	8b 45 f4             	mov    -0xc(%ebp),%eax
c00019a0:	eb 0b                	jmp    c00019ad <intr_enable+0x27>
c00019a2:	c7 45 f4 00 00 00 00 	movl   $0x0,-0xc(%ebp)
c00019a9:	fb                   	sti    
c00019aa:	8b 45 f4             	mov    -0xc(%ebp),%eax
c00019ad:	c9                   	leave  
c00019ae:	c3                   	ret    

c00019af <intr_disable>:
c00019af:	55                   	push   %ebp
c00019b0:	89 e5                	mov    %esp,%ebp
c00019b2:	83 ec 18             	sub    $0x18,%esp
c00019b5:	e8 3c 00 00 00       	call   c00019f6 <intr_get_status>
c00019ba:	83 f8 01             	cmp    $0x1,%eax
c00019bd:	75 0d                	jne    c00019cc <intr_disable+0x1d>
c00019bf:	c7 45 f4 01 00 00 00 	movl   $0x1,-0xc(%ebp)
c00019c6:	fa                   	cli    
c00019c7:	8b 45 f4             	mov    -0xc(%ebp),%eax
c00019ca:	eb 0a                	jmp    c00019d6 <intr_disable+0x27>
c00019cc:	c7 45 f4 00 00 00 00 	movl   $0x0,-0xc(%ebp)
c00019d3:	8b 45 f4             	mov    -0xc(%ebp),%eax
c00019d6:	c9                   	leave  
c00019d7:	c3                   	ret    

c00019d8 <intr_set_status>:
c00019d8:	55                   	push   %ebp
c00019d9:	89 e5                	mov    %esp,%ebp
c00019db:	83 ec 08             	sub    $0x8,%esp
c00019de:	8b 45 08             	mov    0x8(%ebp),%eax
c00019e1:	83 e0 01             	and    $0x1,%eax
c00019e4:	85 c0                	test   %eax,%eax
c00019e6:	74 07                	je     c00019ef <intr_set_status+0x17>
c00019e8:	e8 99 ff ff ff       	call   c0001986 <intr_enable>
c00019ed:	eb 05                	jmp    c00019f4 <intr_set_status+0x1c>
c00019ef:	e8 bb ff ff ff       	call   c00019af <intr_disable>
c00019f4:	c9                   	leave  
c00019f5:	c3                   	ret    

c00019f6 <intr_get_status>:
c00019f6:	55                   	push   %ebp
c00019f7:	89 e5                	mov    %esp,%ebp
c00019f9:	83 ec 10             	sub    $0x10,%esp
c00019fc:	c7 45 fc 00 00 00 00 	movl   $0x0,-0x4(%ebp)
c0001a03:	9c                   	pushf  
c0001a04:	58                   	pop    %eax
c0001a05:	89 45 fc             	mov    %eax,-0x4(%ebp)
c0001a08:	8b 45 fc             	mov    -0x4(%ebp),%eax
c0001a0b:	c1 e8 09             	shr    $0x9,%eax
c0001a0e:	83 e0 01             	and    $0x1,%eax
c0001a11:	c9                   	leave  
c0001a12:	c3                   	ret    

c0001a13 <register_handler>:
c0001a13:	55                   	push   %ebp
c0001a14:	89 e5                	mov    %esp,%ebp
c0001a16:	83 ec 04             	sub    $0x4,%esp
c0001a19:	8b 45 08             	mov    0x8(%ebp),%eax
c0001a1c:	88 45 fc             	mov    %al,-0x4(%ebp)
c0001a1f:	0f b6 45 fc          	movzbl -0x4(%ebp),%eax
c0001a23:	8b 55 0c             	mov    0xc(%ebp),%edx
c0001a26:	89 14 85 00 66 00 c0 	mov    %edx,-0x3fff9a00(,%eax,4)
c0001a2d:	90                   	nop
c0001a2e:	c9                   	leave  
c0001a2f:	c3                   	ret    

c0001a30 <idt_init>:
c0001a30:	55                   	push   %ebp
c0001a31:	89 e5                	mov    %esp,%ebp
c0001a33:	57                   	push   %edi
c0001a34:	56                   	push   %esi
c0001a35:	83 ec 10             	sub    $0x10,%esp
c0001a38:	83 ec 0c             	sub    $0xc,%esp
c0001a3b:	68 ea 49 00 c0       	push   $0xc00049ea
c0001a40:	e8 1b 26 00 00       	call   c0004060 <put_str>
c0001a45:	83 c4 10             	add    $0x10,%esp
c0001a48:	e8 1d fd ff ff       	call   c000176a <idt_desc_init>
c0001a4d:	e8 3f fe ff ff       	call   c0001891 <exception_init>
c0001a52:	e8 2f fc ff ff       	call   c0001686 <pic_init>
c0001a57:	b8 c0 66 00 c0       	mov    $0xc00066c0,%eax
c0001a5c:	ba 00 00 00 00       	mov    $0x0,%edx
c0001a61:	0f a4 c2 10          	shld   $0x10,%eax,%edx
c0001a65:	c1 e0 10             	shl    $0x10,%eax
c0001a68:	89 c1                	mov    %eax,%ecx
c0001a6a:	81 c9 7f 01 00 00    	or     $0x17f,%ecx
c0001a70:	89 ce                	mov    %ecx,%esi
c0001a72:	89 d0                	mov    %edx,%eax
c0001a74:	80 cc 00             	or     $0x0,%ah
c0001a77:	89 c7                	mov    %eax,%edi
c0001a79:	89 75 f0             	mov    %esi,-0x10(%ebp)
c0001a7c:	89 7d f4             	mov    %edi,-0xc(%ebp)
c0001a7f:	0f 01 5d f0          	lidtl  -0x10(%ebp)
c0001a83:	83 ec 0c             	sub    $0xc,%esp
c0001a86:	68 fa 49 00 c0       	push   $0xc00049fa
c0001a8b:	e8 d0 25 00 00       	call   c0004060 <put_str>
c0001a90:	83 c4 10             	add    $0x10,%esp
c0001a93:	90                   	nop
c0001a94:	8d 65 f8             	lea    -0x8(%ebp),%esp
c0001a97:	5e                   	pop    %esi
c0001a98:	5f                   	pop    %edi
c0001a99:	5d                   	pop    %ebp
c0001a9a:	c3                   	ret    

c0001a9b <outb>:
c0001a9b:	55                   	push   %ebp
c0001a9c:	89 e5                	mov    %esp,%ebp
c0001a9e:	83 ec 08             	sub    $0x8,%esp
c0001aa1:	8b 45 08             	mov    0x8(%ebp),%eax
c0001aa4:	8b 55 0c             	mov    0xc(%ebp),%edx
c0001aa7:	66 89 45 fc          	mov    %ax,-0x4(%ebp)
c0001aab:	88 d0                	mov    %dl,%al
c0001aad:	88 45 f8             	mov    %al,-0x8(%ebp)
c0001ab0:	8a 45 f8             	mov    -0x8(%ebp),%al
c0001ab3:	8b 55 fc             	mov    -0x4(%ebp),%edx
c0001ab6:	ee                   	out    %al,(%dx)
c0001ab7:	90                   	nop
c0001ab8:	c9                   	leave  
c0001ab9:	c3                   	ret    

c0001aba <frequency_set>:
c0001aba:	55                   	push   %ebp
c0001abb:	89 e5                	mov    %esp,%ebp
c0001abd:	57                   	push   %edi
c0001abe:	56                   	push   %esi
c0001abf:	53                   	push   %ebx
c0001ac0:	83 ec 14             	sub    $0x14,%esp
c0001ac3:	8b 75 08             	mov    0x8(%ebp),%esi
c0001ac6:	8b 5d 0c             	mov    0xc(%ebp),%ebx
c0001ac9:	8b 4d 10             	mov    0x10(%ebp),%ecx
c0001acc:	8b 55 14             	mov    0x14(%ebp),%edx
c0001acf:	8b 7d 18             	mov    0x18(%ebp),%edi
c0001ad2:	89 f0                	mov    %esi,%eax
c0001ad4:	88 45 f0             	mov    %al,-0x10(%ebp)
c0001ad7:	88 5d ec             	mov    %bl,-0x14(%ebp)
c0001ada:	88 4d e8             	mov    %cl,-0x18(%ebp)
c0001add:	88 55 e4             	mov    %dl,-0x1c(%ebp)
c0001ae0:	89 f8                	mov    %edi,%eax
c0001ae2:	66 89 45 e0          	mov    %ax,-0x20(%ebp)
c0001ae6:	0f b6 45 ec          	movzbl -0x14(%ebp),%eax
c0001aea:	c1 e0 06             	shl    $0x6,%eax
c0001aed:	88 c2                	mov    %al,%dl
c0001aef:	0f b6 45 e8          	movzbl -0x18(%ebp),%eax
c0001af3:	c1 e0 04             	shl    $0x4,%eax
c0001af6:	09 c2                	or     %eax,%edx
c0001af8:	0f b6 45 e4          	movzbl -0x1c(%ebp),%eax
c0001afc:	01 c0                	add    %eax,%eax
c0001afe:	09 d0                	or     %edx,%eax
c0001b00:	0f b6 c0             	movzbl %al,%eax
c0001b03:	50                   	push   %eax
c0001b04:	6a 43                	push   $0x43
c0001b06:	e8 90 ff ff ff       	call   c0001a9b <outb>
c0001b0b:	83 c4 08             	add    $0x8,%esp
c0001b0e:	8b 45 e0             	mov    -0x20(%ebp),%eax
c0001b11:	0f b6 d0             	movzbl %al,%edx
c0001b14:	0f b6 45 f0          	movzbl -0x10(%ebp),%eax
c0001b18:	52                   	push   %edx
c0001b19:	50                   	push   %eax
c0001b1a:	e8 7c ff ff ff       	call   c0001a9b <outb>
c0001b1f:	83 c4 08             	add    $0x8,%esp
c0001b22:	8b 45 e0             	mov    -0x20(%ebp),%eax
c0001b25:	0f b6 c0             	movzbl %al,%eax
c0001b28:	c1 f8 08             	sar    $0x8,%eax
c0001b2b:	0f b6 d0             	movzbl %al,%edx
c0001b2e:	0f b6 45 f0          	movzbl -0x10(%ebp),%eax
c0001b32:	52                   	push   %edx
c0001b33:	50                   	push   %eax
c0001b34:	e8 62 ff ff ff       	call   c0001a9b <outb>
c0001b39:	83 c4 08             	add    $0x8,%esp
c0001b3c:	90                   	nop
c0001b3d:	8d 65 f4             	lea    -0xc(%ebp),%esp
c0001b40:	5b                   	pop    %ebx
c0001b41:	5e                   	pop    %esi
c0001b42:	5f                   	pop    %edi
c0001b43:	5d                   	pop    %ebp
c0001b44:	c3                   	ret    

c0001b45 <intr_timer_handler>:
c0001b45:	55                   	push   %ebp
c0001b46:	89 e5                	mov    %esp,%ebp
c0001b48:	83 ec 18             	sub    $0x18,%esp
c0001b4b:	e8 44 0f 00 00       	call   c0002a94 <running_thread>
c0001b50:	89 45 f4             	mov    %eax,-0xc(%ebp)
c0001b53:	8b 45 f4             	mov    -0xc(%ebp),%eax
c0001b56:	8b 40 40             	mov    0x40(%eax),%eax
c0001b59:	3d 16 09 87 19       	cmp    $0x19870916,%eax
c0001b5e:	74 19                	je     c0001b79 <intr_timer_handler+0x34>
c0001b60:	68 0c 4a 00 c0       	push   $0xc0004a0c
c0001b65:	68 64 4a 00 c0       	push   $0xc0004a64
c0001b6a:	6a 25                	push   $0x25
c0001b6c:	68 32 4a 00 c0       	push   $0xc0004a32
c0001b71:	e8 93 00 00 00       	call   c0001c09 <panic_spin>
c0001b76:	83 c4 10             	add    $0x10,%esp
c0001b79:	8b 45 f4             	mov    -0xc(%ebp),%eax
c0001b7c:	8b 40 1c             	mov    0x1c(%eax),%eax
c0001b7f:	8d 50 01             	lea    0x1(%eax),%edx
c0001b82:	8b 45 f4             	mov    -0xc(%ebp),%eax
c0001b85:	89 50 1c             	mov    %edx,0x1c(%eax)
c0001b88:	a1 40 68 00 c0       	mov    0xc0006840,%eax
c0001b8d:	40                   	inc    %eax
c0001b8e:	a3 40 68 00 c0       	mov    %eax,0xc0006840
c0001b93:	8b 45 f4             	mov    -0xc(%ebp),%eax
c0001b96:	8a 40 19             	mov    0x19(%eax),%al
c0001b99:	84 c0                	test   %al,%al
c0001b9b:	75 07                	jne    c0001ba4 <intr_timer_handler+0x5f>
c0001b9d:	e8 80 11 00 00       	call   c0002d22 <schedule>
c0001ba2:	eb 0f                	jmp    c0001bb3 <intr_timer_handler+0x6e>
c0001ba4:	8b 45 f4             	mov    -0xc(%ebp),%eax
c0001ba7:	8a 40 19             	mov    0x19(%eax),%al
c0001baa:	8d 50 ff             	lea    -0x1(%eax),%edx
c0001bad:	8b 45 f4             	mov    -0xc(%ebp),%eax
c0001bb0:	88 50 19             	mov    %dl,0x19(%eax)
c0001bb3:	90                   	nop
c0001bb4:	c9                   	leave  
c0001bb5:	c3                   	ret    

c0001bb6 <timer_init>:
c0001bb6:	55                   	push   %ebp
c0001bb7:	89 e5                	mov    %esp,%ebp
c0001bb9:	83 ec 08             	sub    $0x8,%esp
c0001bbc:	83 ec 0c             	sub    $0xc,%esp
c0001bbf:	68 41 4a 00 c0       	push   $0xc0004a41
c0001bc4:	e8 97 24 00 00       	call   c0004060 <put_str>
c0001bc9:	83 c4 10             	add    $0x10,%esp
c0001bcc:	83 ec 0c             	sub    $0xc,%esp
c0001bcf:	68 87 00 00 00       	push   $0x87
c0001bd4:	6a 02                	push   $0x2
c0001bd6:	6a 03                	push   $0x3
c0001bd8:	6a 00                	push   $0x0
c0001bda:	6a 40                	push   $0x40
c0001bdc:	e8 d9 fe ff ff       	call   c0001aba <frequency_set>
c0001be1:	83 c4 20             	add    $0x20,%esp
c0001be4:	83 ec 08             	sub    $0x8,%esp
c0001be7:	68 45 1b 00 c0       	push   $0xc0001b45
c0001bec:	6a 20                	push   $0x20
c0001bee:	e8 20 fe ff ff       	call   c0001a13 <register_handler>
c0001bf3:	83 c4 10             	add    $0x10,%esp
c0001bf6:	83 ec 0c             	sub    $0xc,%esp
c0001bf9:	68 53 4a 00 c0       	push   $0xc0004a53
c0001bfe:	e8 5d 24 00 00       	call   c0004060 <put_str>
c0001c03:	83 c4 10             	add    $0x10,%esp
c0001c06:	90                   	nop
c0001c07:	c9                   	leave  
c0001c08:	c3                   	ret    

c0001c09 <panic_spin>:
c0001c09:	55                   	push   %ebp
c0001c0a:	89 e5                	mov    %esp,%ebp
c0001c0c:	83 ec 08             	sub    $0x8,%esp
c0001c0f:	e8 9b fd ff ff       	call   c00019af <intr_disable>
c0001c14:	83 ec 0c             	sub    $0xc,%esp
c0001c17:	68 77 4a 00 c0       	push   $0xc0004a77
c0001c1c:	e8 3f 24 00 00       	call   c0004060 <put_str>
c0001c21:	83 c4 10             	add    $0x10,%esp
c0001c24:	83 ec 0c             	sub    $0xc,%esp
c0001c27:	68 8d 4a 00 c0       	push   $0xc0004a8d
c0001c2c:	e8 2f 24 00 00       	call   c0004060 <put_str>
c0001c31:	83 c4 10             	add    $0x10,%esp
c0001c34:	83 ec 0c             	sub    $0xc,%esp
c0001c37:	ff 75 08             	push   0x8(%ebp)
c0001c3a:	e8 21 24 00 00       	call   c0004060 <put_str>
c0001c3f:	83 c4 10             	add    $0x10,%esp
c0001c42:	83 ec 0c             	sub    $0xc,%esp
c0001c45:	68 97 4a 00 c0       	push   $0xc0004a97
c0001c4a:	e8 11 24 00 00       	call   c0004060 <put_str>
c0001c4f:	83 c4 10             	add    $0x10,%esp
c0001c52:	83 ec 0c             	sub    $0xc,%esp
c0001c55:	68 99 4a 00 c0       	push   $0xc0004a99
c0001c5a:	e8 01 24 00 00       	call   c0004060 <put_str>
c0001c5f:	83 c4 10             	add    $0x10,%esp
c0001c62:	8b 45 0c             	mov    0xc(%ebp),%eax
c0001c65:	83 ec 0c             	sub    $0xc,%esp
c0001c68:	50                   	push   %eax
c0001c69:	e8 dd 24 00 00       	call   c000414b <put_int>
c0001c6e:	83 c4 10             	add    $0x10,%esp
c0001c71:	83 ec 0c             	sub    $0xc,%esp
c0001c74:	68 97 4a 00 c0       	push   $0xc0004a97
c0001c79:	e8 e2 23 00 00       	call   c0004060 <put_str>
c0001c7e:	83 c4 10             	add    $0x10,%esp
c0001c81:	83 ec 0c             	sub    $0xc,%esp
c0001c84:	68 a1 4a 00 c0       	push   $0xc0004aa1
c0001c89:	e8 d2 23 00 00       	call   c0004060 <put_str>
c0001c8e:	83 c4 10             	add    $0x10,%esp
c0001c91:	83 ec 0c             	sub    $0xc,%esp
c0001c94:	ff 75 10             	push   0x10(%ebp)
c0001c97:	e8 c4 23 00 00       	call   c0004060 <put_str>
c0001c9c:	83 c4 10             	add    $0x10,%esp
c0001c9f:	83 ec 0c             	sub    $0xc,%esp
c0001ca2:	68 97 4a 00 c0       	push   $0xc0004a97
c0001ca7:	e8 b4 23 00 00       	call   c0004060 <put_str>
c0001cac:	83 c4 10             	add    $0x10,%esp
c0001caf:	83 ec 0c             	sub    $0xc,%esp
c0001cb2:	68 ab 4a 00 c0       	push   $0xc0004aab
c0001cb7:	e8 a4 23 00 00       	call   c0004060 <put_str>
c0001cbc:	83 c4 10             	add    $0x10,%esp
c0001cbf:	83 ec 0c             	sub    $0xc,%esp
c0001cc2:	ff 75 14             	push   0x14(%ebp)
c0001cc5:	e8 96 23 00 00       	call   c0004060 <put_str>
c0001cca:	83 c4 10             	add    $0x10,%esp
c0001ccd:	83 ec 0c             	sub    $0xc,%esp
c0001cd0:	68 97 4a 00 c0       	push   $0xc0004a97
c0001cd5:	e8 86 23 00 00       	call   c0004060 <put_str>
c0001cda:	83 c4 10             	add    $0x10,%esp
c0001cdd:	eb fe                	jmp    c0001cdd <panic_spin+0xd4>

c0001cdf <memset>:
c0001cdf:	55                   	push   %ebp
c0001ce0:	89 e5                	mov    %esp,%ebp
c0001ce2:	83 ec 28             	sub    $0x28,%esp
c0001ce5:	8b 45 0c             	mov    0xc(%ebp),%eax
c0001ce8:	88 45 e4             	mov    %al,-0x1c(%ebp)
c0001ceb:	83 7d 08 00          	cmpl   $0x0,0x8(%ebp)
c0001cef:	75 19                	jne    c0001d0a <memset+0x2b>
c0001cf1:	68 b8 4a 00 c0       	push   $0xc0004ab8
c0001cf6:	68 2c 4b 00 c0       	push   $0xc0004b2c
c0001cfb:	6a 08                	push   $0x8
c0001cfd:	68 c5 4a 00 c0       	push   $0xc0004ac5
c0001d02:	e8 02 ff ff ff       	call   c0001c09 <panic_spin>
c0001d07:	83 c4 10             	add    $0x10,%esp
c0001d0a:	8b 45 08             	mov    0x8(%ebp),%eax
c0001d0d:	89 45 f4             	mov    %eax,-0xc(%ebp)
c0001d10:	eb 0e                	jmp    c0001d20 <memset+0x41>
c0001d12:	8b 45 f4             	mov    -0xc(%ebp),%eax
c0001d15:	8d 50 01             	lea    0x1(%eax),%edx
c0001d18:	89 55 f4             	mov    %edx,-0xc(%ebp)
c0001d1b:	8a 55 e4             	mov    -0x1c(%ebp),%dl
c0001d1e:	88 10                	mov    %dl,(%eax)
c0001d20:	8b 45 10             	mov    0x10(%ebp),%eax
c0001d23:	8d 50 ff             	lea    -0x1(%eax),%edx
c0001d26:	89 55 10             	mov    %edx,0x10(%ebp)
c0001d29:	85 c0                	test   %eax,%eax
c0001d2b:	75 e5                	jne    c0001d12 <memset+0x33>
c0001d2d:	90                   	nop
c0001d2e:	90                   	nop
c0001d2f:	c9                   	leave  
c0001d30:	c3                   	ret    

c0001d31 <memcpy>:
c0001d31:	55                   	push   %ebp
c0001d32:	89 e5                	mov    %esp,%ebp
c0001d34:	83 ec 18             	sub    $0x18,%esp
c0001d37:	83 7d 08 00          	cmpl   $0x0,0x8(%ebp)
c0001d3b:	74 06                	je     c0001d43 <memcpy+0x12>
c0001d3d:	83 7d 0c 00          	cmpl   $0x0,0xc(%ebp)
c0001d41:	75 19                	jne    c0001d5c <memcpy+0x2b>
c0001d43:	68 d2 4a 00 c0       	push   $0xc0004ad2
c0001d48:	68 34 4b 00 c0       	push   $0xc0004b34
c0001d4d:	6a 10                	push   $0x10
c0001d4f:	68 c5 4a 00 c0       	push   $0xc0004ac5
c0001d54:	e8 b0 fe ff ff       	call   c0001c09 <panic_spin>
c0001d59:	83 c4 10             	add    $0x10,%esp
c0001d5c:	8b 45 08             	mov    0x8(%ebp),%eax
c0001d5f:	89 45 f4             	mov    %eax,-0xc(%ebp)
c0001d62:	8b 45 0c             	mov    0xc(%ebp),%eax
c0001d65:	89 45 f0             	mov    %eax,-0x10(%ebp)
c0001d68:	eb 16                	jmp    c0001d80 <memcpy+0x4f>
c0001d6a:	8b 55 f0             	mov    -0x10(%ebp),%edx
c0001d6d:	8d 42 01             	lea    0x1(%edx),%eax
c0001d70:	89 45 f0             	mov    %eax,-0x10(%ebp)
c0001d73:	8b 45 f4             	mov    -0xc(%ebp),%eax
c0001d76:	8d 48 01             	lea    0x1(%eax),%ecx
c0001d79:	89 4d f4             	mov    %ecx,-0xc(%ebp)
c0001d7c:	8a 12                	mov    (%edx),%dl
c0001d7e:	88 10                	mov    %dl,(%eax)
c0001d80:	8b 45 10             	mov    0x10(%ebp),%eax
c0001d83:	8d 50 ff             	lea    -0x1(%eax),%edx
c0001d86:	89 55 10             	mov    %edx,0x10(%ebp)
c0001d89:	85 c0                	test   %eax,%eax
c0001d8b:	75 dd                	jne    c0001d6a <memcpy+0x39>
c0001d8d:	90                   	nop
c0001d8e:	90                   	nop
c0001d8f:	c9                   	leave  
c0001d90:	c3                   	ret    

c0001d91 <memcmp>:
c0001d91:	55                   	push   %ebp
c0001d92:	89 e5                	mov    %esp,%ebp
c0001d94:	83 ec 18             	sub    $0x18,%esp
c0001d97:	8b 45 08             	mov    0x8(%ebp),%eax
c0001d9a:	89 45 f4             	mov    %eax,-0xc(%ebp)
c0001d9d:	8b 45 0c             	mov    0xc(%ebp),%eax
c0001da0:	89 45 f0             	mov    %eax,-0x10(%ebp)
c0001da3:	83 7d f4 00          	cmpl   $0x0,-0xc(%ebp)
c0001da7:	75 51                	jne    c0001dfa <memcmp+0x69>
c0001da9:	83 7d f0 00          	cmpl   $0x0,-0x10(%ebp)
c0001dad:	75 4b                	jne    c0001dfa <memcmp+0x69>
c0001daf:	68 ef 4a 00 c0       	push   $0xc0004aef
c0001db4:	68 3c 4b 00 c0       	push   $0xc0004b3c
c0001db9:	6a 1b                	push   $0x1b
c0001dbb:	68 c5 4a 00 c0       	push   $0xc0004ac5
c0001dc0:	e8 44 fe ff ff       	call   c0001c09 <panic_spin>
c0001dc5:	83 c4 10             	add    $0x10,%esp
c0001dc8:	eb 30                	jmp    c0001dfa <memcmp+0x69>
c0001dca:	8b 45 f4             	mov    -0xc(%ebp),%eax
c0001dcd:	8a 10                	mov    (%eax),%dl
c0001dcf:	8b 45 f0             	mov    -0x10(%ebp),%eax
c0001dd2:	8a 00                	mov    (%eax),%al
c0001dd4:	38 c2                	cmp    %al,%dl
c0001dd6:	74 1c                	je     c0001df4 <memcmp+0x63>
c0001dd8:	8b 45 f4             	mov    -0xc(%ebp),%eax
c0001ddb:	8a 10                	mov    (%eax),%dl
c0001ddd:	8b 45 f0             	mov    -0x10(%ebp),%eax
c0001de0:	8a 00                	mov    (%eax),%al
c0001de2:	38 c2                	cmp    %al,%dl
c0001de4:	7e 07                	jle    c0001ded <memcmp+0x5c>
c0001de6:	b8 01 00 00 00       	mov    $0x1,%eax
c0001deb:	eb 1f                	jmp    c0001e0c <memcmp+0x7b>
c0001ded:	b8 ff ff ff ff       	mov    $0xffffffff,%eax
c0001df2:	eb 18                	jmp    c0001e0c <memcmp+0x7b>
c0001df4:	ff 45 f4             	incl   -0xc(%ebp)
c0001df7:	ff 45 f0             	incl   -0x10(%ebp)
c0001dfa:	8b 45 10             	mov    0x10(%ebp),%eax
c0001dfd:	8d 50 ff             	lea    -0x1(%eax),%edx
c0001e00:	89 55 10             	mov    %edx,0x10(%ebp)
c0001e03:	85 c0                	test   %eax,%eax
c0001e05:	75 c3                	jne    c0001dca <memcmp+0x39>
c0001e07:	b8 00 00 00 00       	mov    $0x0,%eax
c0001e0c:	c9                   	leave  
c0001e0d:	c3                   	ret    

c0001e0e <strcpy>:
c0001e0e:	55                   	push   %ebp
c0001e0f:	89 e5                	mov    %esp,%ebp
c0001e11:	83 ec 18             	sub    $0x18,%esp
c0001e14:	83 7d 08 00          	cmpl   $0x0,0x8(%ebp)
c0001e18:	74 06                	je     c0001e20 <strcpy+0x12>
c0001e1a:	83 7d 0c 00          	cmpl   $0x0,0xc(%ebp)
c0001e1e:	75 19                	jne    c0001e39 <strcpy+0x2b>
c0001e20:	68 d2 4a 00 c0       	push   $0xc0004ad2
c0001e25:	68 44 4b 00 c0       	push   $0xc0004b44
c0001e2a:	6a 28                	push   $0x28
c0001e2c:	68 c5 4a 00 c0       	push   $0xc0004ac5
c0001e31:	e8 d3 fd ff ff       	call   c0001c09 <panic_spin>
c0001e36:	83 c4 10             	add    $0x10,%esp
c0001e39:	8b 45 08             	mov    0x8(%ebp),%eax
c0001e3c:	89 45 f4             	mov    %eax,-0xc(%ebp)
c0001e3f:	90                   	nop
c0001e40:	8b 55 0c             	mov    0xc(%ebp),%edx
c0001e43:	8d 42 01             	lea    0x1(%edx),%eax
c0001e46:	89 45 0c             	mov    %eax,0xc(%ebp)
c0001e49:	8b 45 08             	mov    0x8(%ebp),%eax
c0001e4c:	8d 48 01             	lea    0x1(%eax),%ecx
c0001e4f:	89 4d 08             	mov    %ecx,0x8(%ebp)
c0001e52:	8a 12                	mov    (%edx),%dl
c0001e54:	88 10                	mov    %dl,(%eax)
c0001e56:	8a 00                	mov    (%eax),%al
c0001e58:	84 c0                	test   %al,%al
c0001e5a:	75 e4                	jne    c0001e40 <strcpy+0x32>
c0001e5c:	8b 45 f4             	mov    -0xc(%ebp),%eax
c0001e5f:	c9                   	leave  
c0001e60:	c3                   	ret    

c0001e61 <strlen>:
c0001e61:	55                   	push   %ebp
c0001e62:	89 e5                	mov    %esp,%ebp
c0001e64:	83 ec 18             	sub    $0x18,%esp
c0001e67:	83 7d 08 00          	cmpl   $0x0,0x8(%ebp)
c0001e6b:	75 19                	jne    c0001e86 <strlen+0x25>
c0001e6d:	68 06 4b 00 c0       	push   $0xc0004b06
c0001e72:	68 4c 4b 00 c0       	push   $0xc0004b4c
c0001e77:	6a 30                	push   $0x30
c0001e79:	68 c5 4a 00 c0       	push   $0xc0004ac5
c0001e7e:	e8 86 fd ff ff       	call   c0001c09 <panic_spin>
c0001e83:	83 c4 10             	add    $0x10,%esp
c0001e86:	8b 45 08             	mov    0x8(%ebp),%eax
c0001e89:	89 45 f4             	mov    %eax,-0xc(%ebp)
c0001e8c:	90                   	nop
c0001e8d:	8b 45 f4             	mov    -0xc(%ebp),%eax
c0001e90:	8d 50 01             	lea    0x1(%eax),%edx
c0001e93:	89 55 f4             	mov    %edx,-0xc(%ebp)
c0001e96:	8a 00                	mov    (%eax),%al
c0001e98:	84 c0                	test   %al,%al
c0001e9a:	75 f1                	jne    c0001e8d <strlen+0x2c>
c0001e9c:	8b 45 f4             	mov    -0xc(%ebp),%eax
c0001e9f:	2b 45 08             	sub    0x8(%ebp),%eax
c0001ea2:	48                   	dec    %eax
c0001ea3:	c9                   	leave  
c0001ea4:	c3                   	ret    

c0001ea5 <strcmp>:
c0001ea5:	55                   	push   %ebp
c0001ea6:	89 e5                	mov    %esp,%ebp
c0001ea8:	83 ec 08             	sub    $0x8,%esp
c0001eab:	83 7d 08 00          	cmpl   $0x0,0x8(%ebp)
c0001eaf:	74 06                	je     c0001eb7 <strcmp+0x12>
c0001eb1:	83 7d 0c 00          	cmpl   $0x0,0xc(%ebp)
c0001eb5:	75 19                	jne    c0001ed0 <strcmp+0x2b>
c0001eb7:	68 12 4b 00 c0       	push   $0xc0004b12
c0001ebc:	68 54 4b 00 c0       	push   $0xc0004b54
c0001ec1:	6a 38                	push   $0x38
c0001ec3:	68 c5 4a 00 c0       	push   $0xc0004ac5
c0001ec8:	e8 3c fd ff ff       	call   c0001c09 <panic_spin>
c0001ecd:	83 c4 10             	add    $0x10,%esp
c0001ed0:	eb 06                	jmp    c0001ed8 <strcmp+0x33>
c0001ed2:	ff 45 08             	incl   0x8(%ebp)
c0001ed5:	ff 45 0c             	incl   0xc(%ebp)
c0001ed8:	8b 45 08             	mov    0x8(%ebp),%eax
c0001edb:	8a 00                	mov    (%eax),%al
c0001edd:	84 c0                	test   %al,%al
c0001edf:	74 0e                	je     c0001eef <strcmp+0x4a>
c0001ee1:	8b 45 08             	mov    0x8(%ebp),%eax
c0001ee4:	8a 10                	mov    (%eax),%dl
c0001ee6:	8b 45 0c             	mov    0xc(%ebp),%eax
c0001ee9:	8a 00                	mov    (%eax),%al
c0001eeb:	38 c2                	cmp    %al,%dl
c0001eed:	74 e3                	je     c0001ed2 <strcmp+0x2d>
c0001eef:	8b 45 08             	mov    0x8(%ebp),%eax
c0001ef2:	8a 10                	mov    (%eax),%dl
c0001ef4:	8b 45 0c             	mov    0xc(%ebp),%eax
c0001ef7:	8a 00                	mov    (%eax),%al
c0001ef9:	38 c2                	cmp    %al,%dl
c0001efb:	7c 11                	jl     c0001f0e <strcmp+0x69>
c0001efd:	8b 45 08             	mov    0x8(%ebp),%eax
c0001f00:	8a 10                	mov    (%eax),%dl
c0001f02:	8b 45 0c             	mov    0xc(%ebp),%eax
c0001f05:	8a 00                	mov    (%eax),%al
c0001f07:	38 c2                	cmp    %al,%dl
c0001f09:	0f 9f c0             	setg   %al
c0001f0c:	eb 02                	jmp    c0001f10 <strcmp+0x6b>
c0001f0e:	b0 ff                	mov    $0xff,%al
c0001f10:	c9                   	leave  
c0001f11:	c3                   	ret    

c0001f12 <strchr>:
c0001f12:	55                   	push   %ebp
c0001f13:	89 e5                	mov    %esp,%ebp
c0001f15:	83 ec 18             	sub    $0x18,%esp
c0001f18:	8b 45 0c             	mov    0xc(%ebp),%eax
c0001f1b:	88 45 f4             	mov    %al,-0xc(%ebp)
c0001f1e:	83 7d 08 00          	cmpl   $0x0,0x8(%ebp)
c0001f22:	75 33                	jne    c0001f57 <strchr+0x45>
c0001f24:	68 06 4b 00 c0       	push   $0xc0004b06
c0001f29:	68 5c 4b 00 c0       	push   $0xc0004b5c
c0001f2e:	6a 42                	push   $0x42
c0001f30:	68 c5 4a 00 c0       	push   $0xc0004ac5
c0001f35:	e8 cf fc ff ff       	call   c0001c09 <panic_spin>
c0001f3a:	83 c4 10             	add    $0x10,%esp
c0001f3d:	eb 18                	jmp    c0001f57 <strchr+0x45>
c0001f3f:	8b 45 08             	mov    0x8(%ebp),%eax
c0001f42:	8a 00                	mov    (%eax),%al
c0001f44:	0f be d0             	movsbl %al,%edx
c0001f47:	0f b6 45 f4          	movzbl -0xc(%ebp),%eax
c0001f4b:	39 c2                	cmp    %eax,%edx
c0001f4d:	75 05                	jne    c0001f54 <strchr+0x42>
c0001f4f:	8b 45 08             	mov    0x8(%ebp),%eax
c0001f52:	eb 11                	jmp    c0001f65 <strchr+0x53>
c0001f54:	ff 45 08             	incl   0x8(%ebp)
c0001f57:	8b 45 08             	mov    0x8(%ebp),%eax
c0001f5a:	8a 00                	mov    (%eax),%al
c0001f5c:	84 c0                	test   %al,%al
c0001f5e:	75 df                	jne    c0001f3f <strchr+0x2d>
c0001f60:	b8 00 00 00 00       	mov    $0x0,%eax
c0001f65:	c9                   	leave  
c0001f66:	c3                   	ret    

c0001f67 <strrchr>:
c0001f67:	55                   	push   %ebp
c0001f68:	89 e5                	mov    %esp,%ebp
c0001f6a:	83 ec 28             	sub    $0x28,%esp
c0001f6d:	8b 45 0c             	mov    0xc(%ebp),%eax
c0001f70:	88 45 e4             	mov    %al,-0x1c(%ebp)
c0001f73:	83 7d 08 00          	cmpl   $0x0,0x8(%ebp)
c0001f77:	75 19                	jne    c0001f92 <strrchr+0x2b>
c0001f79:	68 06 4b 00 c0       	push   $0xc0004b06
c0001f7e:	68 64 4b 00 c0       	push   $0xc0004b64
c0001f83:	6a 4e                	push   $0x4e
c0001f85:	68 c5 4a 00 c0       	push   $0xc0004ac5
c0001f8a:	e8 7a fc ff ff       	call   c0001c09 <panic_spin>
c0001f8f:	83 c4 10             	add    $0x10,%esp
c0001f92:	c7 45 f4 00 00 00 00 	movl   $0x0,-0xc(%ebp)
c0001f99:	eb 19                	jmp    c0001fb4 <strrchr+0x4d>
c0001f9b:	8b 45 08             	mov    0x8(%ebp),%eax
c0001f9e:	8a 00                	mov    (%eax),%al
c0001fa0:	0f be d0             	movsbl %al,%edx
c0001fa3:	0f b6 45 e4          	movzbl -0x1c(%ebp),%eax
c0001fa7:	39 c2                	cmp    %eax,%edx
c0001fa9:	75 06                	jne    c0001fb1 <strrchr+0x4a>
c0001fab:	8b 45 08             	mov    0x8(%ebp),%eax
c0001fae:	89 45 f4             	mov    %eax,-0xc(%ebp)
c0001fb1:	ff 45 08             	incl   0x8(%ebp)
c0001fb4:	8b 45 08             	mov    0x8(%ebp),%eax
c0001fb7:	8a 00                	mov    (%eax),%al
c0001fb9:	84 c0                	test   %al,%al
c0001fbb:	75 de                	jne    c0001f9b <strrchr+0x34>
c0001fbd:	8b 45 f4             	mov    -0xc(%ebp),%eax
c0001fc0:	c9                   	leave  
c0001fc1:	c3                   	ret    

c0001fc2 <strcat>:
c0001fc2:	55                   	push   %ebp
c0001fc3:	89 e5                	mov    %esp,%ebp
c0001fc5:	83 ec 18             	sub    $0x18,%esp
c0001fc8:	83 7d 08 00          	cmpl   $0x0,0x8(%ebp)
c0001fcc:	74 06                	je     c0001fd4 <strcat+0x12>
c0001fce:	83 7d 0c 00          	cmpl   $0x0,0xc(%ebp)
c0001fd2:	75 19                	jne    c0001fed <strcat+0x2b>
c0001fd4:	68 d2 4a 00 c0       	push   $0xc0004ad2
c0001fd9:	68 6c 4b 00 c0       	push   $0xc0004b6c
c0001fde:	6a 5b                	push   $0x5b
c0001fe0:	68 c5 4a 00 c0       	push   $0xc0004ac5
c0001fe5:	e8 1f fc ff ff       	call   c0001c09 <panic_spin>
c0001fea:	83 c4 10             	add    $0x10,%esp
c0001fed:	8b 45 08             	mov    0x8(%ebp),%eax
c0001ff0:	89 45 f4             	mov    %eax,-0xc(%ebp)
c0001ff3:	90                   	nop
c0001ff4:	8b 45 f4             	mov    -0xc(%ebp),%eax
c0001ff7:	8d 50 01             	lea    0x1(%eax),%edx
c0001ffa:	89 55 f4             	mov    %edx,-0xc(%ebp)
c0001ffd:	8a 00                	mov    (%eax),%al
c0001fff:	84 c0                	test   %al,%al
c0002001:	75 f1                	jne    c0001ff4 <strcat+0x32>
c0002003:	ff 4d f4             	decl   -0xc(%ebp)
c0002006:	90                   	nop
c0002007:	8b 55 0c             	mov    0xc(%ebp),%edx
c000200a:	8d 42 01             	lea    0x1(%edx),%eax
c000200d:	89 45 0c             	mov    %eax,0xc(%ebp)
c0002010:	8b 45 f4             	mov    -0xc(%ebp),%eax
c0002013:	8d 48 01             	lea    0x1(%eax),%ecx
c0002016:	89 4d f4             	mov    %ecx,-0xc(%ebp)
c0002019:	8a 12                	mov    (%edx),%dl
c000201b:	88 10                	mov    %dl,(%eax)
c000201d:	8a 00                	mov    (%eax),%al
c000201f:	84 c0                	test   %al,%al
c0002021:	75 e4                	jne    c0002007 <strcat+0x45>
c0002023:	8b 45 08             	mov    0x8(%ebp),%eax
c0002026:	c9                   	leave  
c0002027:	c3                   	ret    

c0002028 <strchrs>:
c0002028:	55                   	push   %ebp
c0002029:	89 e5                	mov    %esp,%ebp
c000202b:	83 ec 28             	sub    $0x28,%esp
c000202e:	8b 45 0c             	mov    0xc(%ebp),%eax
c0002031:	88 45 e4             	mov    %al,-0x1c(%ebp)
c0002034:	83 7d 08 00          	cmpl   $0x0,0x8(%ebp)
c0002038:	75 19                	jne    c0002053 <strchrs+0x2b>
c000203a:	68 06 4b 00 c0       	push   $0xc0004b06
c000203f:	68 74 4b 00 c0       	push   $0xc0004b74
c0002044:	6a 65                	push   $0x65
c0002046:	68 c5 4a 00 c0       	push   $0xc0004ac5
c000204b:	e8 b9 fb ff ff       	call   c0001c09 <panic_spin>
c0002050:	83 c4 10             	add    $0x10,%esp
c0002053:	c7 45 f4 00 00 00 00 	movl   $0x0,-0xc(%ebp)
c000205a:	8b 45 08             	mov    0x8(%ebp),%eax
c000205d:	89 45 f0             	mov    %eax,-0x10(%ebp)
c0002060:	eb 16                	jmp    c0002078 <strchrs+0x50>
c0002062:	8b 45 f0             	mov    -0x10(%ebp),%eax
c0002065:	8a 00                	mov    (%eax),%al
c0002067:	0f be d0             	movsbl %al,%edx
c000206a:	0f b6 45 e4          	movzbl -0x1c(%ebp),%eax
c000206e:	39 c2                	cmp    %eax,%edx
c0002070:	75 03                	jne    c0002075 <strchrs+0x4d>
c0002072:	ff 45 f4             	incl   -0xc(%ebp)
c0002075:	ff 45 f0             	incl   -0x10(%ebp)
c0002078:	8b 45 f0             	mov    -0x10(%ebp),%eax
c000207b:	8a 00                	mov    (%eax),%al
c000207d:	84 c0                	test   %al,%al
c000207f:	75 e1                	jne    c0002062 <strchrs+0x3a>
c0002081:	8b 45 f4             	mov    -0xc(%ebp),%eax
c0002084:	c9                   	leave  
c0002085:	c3                   	ret    

c0002086 <bitmap_init>:
c0002086:	55                   	push   %ebp
c0002087:	89 e5                	mov    %esp,%ebp
c0002089:	83 ec 08             	sub    $0x8,%esp
c000208c:	8b 45 08             	mov    0x8(%ebp),%eax
c000208f:	8b 10                	mov    (%eax),%edx
c0002091:	8b 45 08             	mov    0x8(%ebp),%eax
c0002094:	8b 40 04             	mov    0x4(%eax),%eax
c0002097:	83 ec 04             	sub    $0x4,%esp
c000209a:	52                   	push   %edx
c000209b:	6a 00                	push   $0x0
c000209d:	50                   	push   %eax
c000209e:	e8 3c fc ff ff       	call   c0001cdf <memset>
c00020a3:	83 c4 10             	add    $0x10,%esp
c00020a6:	90                   	nop
c00020a7:	c9                   	leave  
c00020a8:	c3                   	ret    

c00020a9 <bitmap_scan_test>:
c00020a9:	55                   	push   %ebp
c00020aa:	89 e5                	mov    %esp,%ebp
c00020ac:	53                   	push   %ebx
c00020ad:	83 ec 10             	sub    $0x10,%esp
c00020b0:	8b 45 0c             	mov    0xc(%ebp),%eax
c00020b3:	c1 e8 03             	shr    $0x3,%eax
c00020b6:	89 45 f8             	mov    %eax,-0x8(%ebp)
c00020b9:	8b 45 0c             	mov    0xc(%ebp),%eax
c00020bc:	83 e0 07             	and    $0x7,%eax
c00020bf:	89 45 f4             	mov    %eax,-0xc(%ebp)
c00020c2:	8b 45 08             	mov    0x8(%ebp),%eax
c00020c5:	8b 50 04             	mov    0x4(%eax),%edx
c00020c8:	8b 45 f8             	mov    -0x8(%ebp),%eax
c00020cb:	01 d0                	add    %edx,%eax
c00020cd:	8a 00                	mov    (%eax),%al
c00020cf:	0f b6 d0             	movzbl %al,%edx
c00020d2:	8b 45 f4             	mov    -0xc(%ebp),%eax
c00020d5:	bb 01 00 00 00       	mov    $0x1,%ebx
c00020da:	88 c1                	mov    %al,%cl
c00020dc:	d3 e3                	shl    %cl,%ebx
c00020de:	89 d8                	mov    %ebx,%eax
c00020e0:	21 d0                	and    %edx,%eax
c00020e2:	8b 5d fc             	mov    -0x4(%ebp),%ebx
c00020e5:	c9                   	leave  
c00020e6:	c3                   	ret    

c00020e7 <bitmap_scan>:
c00020e7:	55                   	push   %ebp
c00020e8:	89 e5                	mov    %esp,%ebp
c00020ea:	83 ec 28             	sub    $0x28,%esp
c00020ed:	c7 45 f4 00 00 00 00 	movl   $0x0,-0xc(%ebp)
c00020f4:	eb 03                	jmp    c00020f9 <bitmap_scan+0x12>
c00020f6:	ff 45 f4             	incl   -0xc(%ebp)
c00020f9:	8b 45 08             	mov    0x8(%ebp),%eax
c00020fc:	8b 50 04             	mov    0x4(%eax),%edx
c00020ff:	8b 45 f4             	mov    -0xc(%ebp),%eax
c0002102:	01 d0                	add    %edx,%eax
c0002104:	8a 00                	mov    (%eax),%al
c0002106:	3c ff                	cmp    $0xff,%al
c0002108:	75 0a                	jne    c0002114 <bitmap_scan+0x2d>
c000210a:	8b 45 08             	mov    0x8(%ebp),%eax
c000210d:	8b 00                	mov    (%eax),%eax
c000210f:	39 45 f4             	cmp    %eax,-0xc(%ebp)
c0002112:	72 e2                	jb     c00020f6 <bitmap_scan+0xf>
c0002114:	8b 45 08             	mov    0x8(%ebp),%eax
c0002117:	8b 00                	mov    (%eax),%eax
c0002119:	39 45 f4             	cmp    %eax,-0xc(%ebp)
c000211c:	72 19                	jb     c0002137 <bitmap_scan+0x50>
c000211e:	68 7c 4b 00 c0       	push   $0xc0004b7c
c0002123:	68 d0 4b 00 c0       	push   $0xc0004bd0
c0002128:	6a 1a                	push   $0x1a
c000212a:	68 9c 4b 00 c0       	push   $0xc0004b9c
c000212f:	e8 d5 fa ff ff       	call   c0001c09 <panic_spin>
c0002134:	83 c4 10             	add    $0x10,%esp
c0002137:	8b 45 08             	mov    0x8(%ebp),%eax
c000213a:	8b 00                	mov    (%eax),%eax
c000213c:	39 45 f4             	cmp    %eax,-0xc(%ebp)
c000213f:	75 0a                	jne    c000214b <bitmap_scan+0x64>
c0002141:	b8 ff ff ff ff       	mov    $0xffffffff,%eax
c0002146:	e9 bb 00 00 00       	jmp    c0002206 <bitmap_scan+0x11f>
c000214b:	c7 45 f0 00 00 00 00 	movl   $0x0,-0x10(%ebp)
c0002152:	eb 03                	jmp    c0002157 <bitmap_scan+0x70>
c0002154:	ff 45 f0             	incl   -0x10(%ebp)
c0002157:	8b 45 f0             	mov    -0x10(%ebp),%eax
c000215a:	ba 01 00 00 00       	mov    $0x1,%edx
c000215f:	88 c1                	mov    %al,%cl
c0002161:	d3 e2                	shl    %cl,%edx
c0002163:	89 d0                	mov    %edx,%eax
c0002165:	88 c1                	mov    %al,%cl
c0002167:	8b 45 08             	mov    0x8(%ebp),%eax
c000216a:	8b 50 04             	mov    0x4(%eax),%edx
c000216d:	8b 45 f4             	mov    -0xc(%ebp),%eax
c0002170:	01 d0                	add    %edx,%eax
c0002172:	8a 00                	mov    (%eax),%al
c0002174:	21 c8                	and    %ecx,%eax
c0002176:	84 c0                	test   %al,%al
c0002178:	75 da                	jne    c0002154 <bitmap_scan+0x6d>
c000217a:	8b 45 f4             	mov    -0xc(%ebp),%eax
c000217d:	8d 14 c5 00 00 00 00 	lea    0x0(,%eax,8),%edx
c0002184:	8b 45 f0             	mov    -0x10(%ebp),%eax
c0002187:	01 d0                	add    %edx,%eax
c0002189:	89 45 ec             	mov    %eax,-0x14(%ebp)
c000218c:	83 7d 0c 01          	cmpl   $0x1,0xc(%ebp)
c0002190:	75 05                	jne    c0002197 <bitmap_scan+0xb0>
c0002192:	8b 45 ec             	mov    -0x14(%ebp),%eax
c0002195:	eb 6f                	jmp    c0002206 <bitmap_scan+0x11f>
c0002197:	8b 45 08             	mov    0x8(%ebp),%eax
c000219a:	8b 00                	mov    (%eax),%eax
c000219c:	c1 e0 03             	shl    $0x3,%eax
c000219f:	8b 55 ec             	mov    -0x14(%ebp),%edx
c00021a2:	29 d0                	sub    %edx,%eax
c00021a4:	89 45 e8             	mov    %eax,-0x18(%ebp)
c00021a7:	8b 45 ec             	mov    -0x14(%ebp),%eax
c00021aa:	40                   	inc    %eax
c00021ab:	89 45 e4             	mov    %eax,-0x1c(%ebp)
c00021ae:	c7 45 e0 01 00 00 00 	movl   $0x1,-0x20(%ebp)
c00021b5:	c7 45 ec ff ff ff ff 	movl   $0xffffffff,-0x14(%ebp)
c00021bc:	eb 38                	jmp    c00021f6 <bitmap_scan+0x10f>
c00021be:	83 ec 08             	sub    $0x8,%esp
c00021c1:	ff 75 e4             	push   -0x1c(%ebp)
c00021c4:	ff 75 08             	push   0x8(%ebp)
c00021c7:	e8 dd fe ff ff       	call   c00020a9 <bitmap_scan_test>
c00021cc:	83 c4 10             	add    $0x10,%esp
c00021cf:	85 c0                	test   %eax,%eax
c00021d1:	75 05                	jne    c00021d8 <bitmap_scan+0xf1>
c00021d3:	ff 45 e0             	incl   -0x20(%ebp)
c00021d6:	eb 07                	jmp    c00021df <bitmap_scan+0xf8>
c00021d8:	c7 45 e0 00 00 00 00 	movl   $0x0,-0x20(%ebp)
c00021df:	8b 45 e0             	mov    -0x20(%ebp),%eax
c00021e2:	3b 45 0c             	cmp    0xc(%ebp),%eax
c00021e5:	75 0c                	jne    c00021f3 <bitmap_scan+0x10c>
c00021e7:	8b 45 e4             	mov    -0x1c(%ebp),%eax
c00021ea:	2b 45 0c             	sub    0xc(%ebp),%eax
c00021ed:	40                   	inc    %eax
c00021ee:	89 45 ec             	mov    %eax,-0x14(%ebp)
c00021f1:	eb 10                	jmp    c0002203 <bitmap_scan+0x11c>
c00021f3:	ff 45 e4             	incl   -0x1c(%ebp)
c00021f6:	8b 45 e8             	mov    -0x18(%ebp),%eax
c00021f9:	8d 50 ff             	lea    -0x1(%eax),%edx
c00021fc:	89 55 e8             	mov    %edx,-0x18(%ebp)
c00021ff:	85 c0                	test   %eax,%eax
c0002201:	75 bb                	jne    c00021be <bitmap_scan+0xd7>
c0002203:	8b 45 ec             	mov    -0x14(%ebp),%eax
c0002206:	c9                   	leave  
c0002207:	c3                   	ret    

c0002208 <bitmap_set>:
c0002208:	55                   	push   %ebp
c0002209:	89 e5                	mov    %esp,%ebp
c000220b:	53                   	push   %ebx
c000220c:	83 ec 24             	sub    $0x24,%esp
c000220f:	8b 45 10             	mov    0x10(%ebp),%eax
c0002212:	88 45 e4             	mov    %al,-0x1c(%ebp)
c0002215:	80 7d e4 00          	cmpb   $0x0,-0x1c(%ebp)
c0002219:	74 1f                	je     c000223a <bitmap_set+0x32>
c000221b:	80 7d e4 01          	cmpb   $0x1,-0x1c(%ebp)
c000221f:	74 19                	je     c000223a <bitmap_set+0x32>
c0002221:	68 b0 4b 00 c0       	push   $0xc0004bb0
c0002226:	68 dc 4b 00 c0       	push   $0xc0004bdc
c000222b:	6a 3e                	push   $0x3e
c000222d:	68 9c 4b 00 c0       	push   $0xc0004b9c
c0002232:	e8 d2 f9 ff ff       	call   c0001c09 <panic_spin>
c0002237:	83 c4 10             	add    $0x10,%esp
c000223a:	8b 45 0c             	mov    0xc(%ebp),%eax
c000223d:	c1 e8 03             	shr    $0x3,%eax
c0002240:	89 45 f4             	mov    %eax,-0xc(%ebp)
c0002243:	8b 45 0c             	mov    0xc(%ebp),%eax
c0002246:	83 e0 07             	and    $0x7,%eax
c0002249:	89 45 f0             	mov    %eax,-0x10(%ebp)
c000224c:	80 7d e4 00          	cmpb   $0x0,-0x1c(%ebp)
c0002250:	74 32                	je     c0002284 <bitmap_set+0x7c>
c0002252:	8b 45 08             	mov    0x8(%ebp),%eax
c0002255:	8b 50 04             	mov    0x4(%eax),%edx
c0002258:	8b 45 f4             	mov    -0xc(%ebp),%eax
c000225b:	01 d0                	add    %edx,%eax
c000225d:	8a 00                	mov    (%eax),%al
c000225f:	88 c2                	mov    %al,%dl
c0002261:	8b 45 f0             	mov    -0x10(%ebp),%eax
c0002264:	bb 01 00 00 00       	mov    $0x1,%ebx
c0002269:	88 c1                	mov    %al,%cl
c000226b:	d3 e3                	shl    %cl,%ebx
c000226d:	89 d8                	mov    %ebx,%eax
c000226f:	88 d1                	mov    %dl,%cl
c0002271:	09 c1                	or     %eax,%ecx
c0002273:	8b 45 08             	mov    0x8(%ebp),%eax
c0002276:	8b 50 04             	mov    0x4(%eax),%edx
c0002279:	8b 45 f4             	mov    -0xc(%ebp),%eax
c000227c:	01 d0                	add    %edx,%eax
c000227e:	88 ca                	mov    %cl,%dl
c0002280:	88 10                	mov    %dl,(%eax)
c0002282:	eb 32                	jmp    c00022b6 <bitmap_set+0xae>
c0002284:	8b 45 08             	mov    0x8(%ebp),%eax
c0002287:	8b 50 04             	mov    0x4(%eax),%edx
c000228a:	8b 45 f4             	mov    -0xc(%ebp),%eax
c000228d:	01 d0                	add    %edx,%eax
c000228f:	8a 00                	mov    (%eax),%al
c0002291:	88 c2                	mov    %al,%dl
c0002293:	8b 45 f0             	mov    -0x10(%ebp),%eax
c0002296:	bb 01 00 00 00       	mov    $0x1,%ebx
c000229b:	88 c1                	mov    %al,%cl
c000229d:	d3 e3                	shl    %cl,%ebx
c000229f:	89 d8                	mov    %ebx,%eax
c00022a1:	f7 d0                	not    %eax
c00022a3:	88 d1                	mov    %dl,%cl
c00022a5:	21 c1                	and    %eax,%ecx
c00022a7:	8b 45 08             	mov    0x8(%ebp),%eax
c00022aa:	8b 50 04             	mov    0x4(%eax),%edx
c00022ad:	8b 45 f4             	mov    -0xc(%ebp),%eax
c00022b0:	01 d0                	add    %edx,%eax
c00022b2:	88 ca                	mov    %cl,%dl
c00022b4:	88 10                	mov    %dl,(%eax)
c00022b6:	90                   	nop
c00022b7:	8b 5d fc             	mov    -0x4(%ebp),%ebx
c00022ba:	c9                   	leave  
c00022bb:	c3                   	ret    

c00022bc <vaddr_get>:
c00022bc:	55                   	push   %ebp
c00022bd:	89 e5                	mov    %esp,%ebp
c00022bf:	83 ec 18             	sub    $0x18,%esp
c00022c2:	c7 45 f4 00 00 00 00 	movl   $0x0,-0xc(%ebp)
c00022c9:	c7 45 ec ff ff ff ff 	movl   $0xffffffff,-0x14(%ebp)
c00022d0:	c7 45 f0 00 00 00 00 	movl   $0x0,-0x10(%ebp)
c00022d7:	83 7d 08 01          	cmpl   $0x1,0x8(%ebp)
c00022db:	75 64                	jne    c0002341 <vaddr_get+0x85>
c00022dd:	83 ec 08             	sub    $0x8,%esp
c00022e0:	ff 75 0c             	push   0xc(%ebp)
c00022e3:	68 cc 68 00 c0       	push   $0xc00068cc
c00022e8:	e8 fa fd ff ff       	call   c00020e7 <bitmap_scan>
c00022ed:	83 c4 10             	add    $0x10,%esp
c00022f0:	89 45 ec             	mov    %eax,-0x14(%ebp)
c00022f3:	83 7d ec ff          	cmpl   $0xffffffff,-0x14(%ebp)
c00022f7:	75 2b                	jne    c0002324 <vaddr_get+0x68>
c00022f9:	b8 00 00 00 00       	mov    $0x0,%eax
c00022fe:	e9 cd 00 00 00       	jmp    c00023d0 <vaddr_get+0x114>
c0002303:	8b 45 f0             	mov    -0x10(%ebp),%eax
c0002306:	8d 50 01             	lea    0x1(%eax),%edx
c0002309:	89 55 f0             	mov    %edx,-0x10(%ebp)
c000230c:	8b 55 ec             	mov    -0x14(%ebp),%edx
c000230f:	01 d0                	add    %edx,%eax
c0002311:	83 ec 04             	sub    $0x4,%esp
c0002314:	6a 01                	push   $0x1
c0002316:	50                   	push   %eax
c0002317:	68 cc 68 00 c0       	push   $0xc00068cc
c000231c:	e8 e7 fe ff ff       	call   c0002208 <bitmap_set>
c0002321:	83 c4 10             	add    $0x10,%esp
c0002324:	8b 45 f0             	mov    -0x10(%ebp),%eax
c0002327:	3b 45 0c             	cmp    0xc(%ebp),%eax
c000232a:	72 d7                	jb     c0002303 <vaddr_get+0x47>
c000232c:	a1 d4 68 00 c0       	mov    0xc00068d4,%eax
c0002331:	8b 55 ec             	mov    -0x14(%ebp),%edx
c0002334:	c1 e2 0c             	shl    $0xc,%edx
c0002337:	01 d0                	add    %edx,%eax
c0002339:	89 45 f4             	mov    %eax,-0xc(%ebp)
c000233c:	e9 8c 00 00 00       	jmp    c00023cd <vaddr_get+0x111>
c0002341:	e8 4e 07 00 00       	call   c0002a94 <running_thread>
c0002346:	89 45 e8             	mov    %eax,-0x18(%ebp)
c0002349:	8b 45 e8             	mov    -0x18(%ebp),%eax
c000234c:	83 c0 34             	add    $0x34,%eax
c000234f:	83 ec 08             	sub    $0x8,%esp
c0002352:	ff 75 0c             	push   0xc(%ebp)
c0002355:	50                   	push   %eax
c0002356:	e8 8c fd ff ff       	call   c00020e7 <bitmap_scan>
c000235b:	83 c4 10             	add    $0x10,%esp
c000235e:	89 45 ec             	mov    %eax,-0x14(%ebp)
c0002361:	83 7d ec ff          	cmpl   $0xffffffff,-0x14(%ebp)
c0002365:	75 2a                	jne    c0002391 <vaddr_get+0xd5>
c0002367:	b8 00 00 00 00       	mov    $0x0,%eax
c000236c:	eb 62                	jmp    c00023d0 <vaddr_get+0x114>
c000236e:	8b 45 f0             	mov    -0x10(%ebp),%eax
c0002371:	8d 50 01             	lea    0x1(%eax),%edx
c0002374:	89 55 f0             	mov    %edx,-0x10(%ebp)
c0002377:	8b 55 ec             	mov    -0x14(%ebp),%edx
c000237a:	01 c2                	add    %eax,%edx
c000237c:	8b 45 e8             	mov    -0x18(%ebp),%eax
c000237f:	83 c0 34             	add    $0x34,%eax
c0002382:	83 ec 04             	sub    $0x4,%esp
c0002385:	6a 01                	push   $0x1
c0002387:	52                   	push   %edx
c0002388:	50                   	push   %eax
c0002389:	e8 7a fe ff ff       	call   c0002208 <bitmap_set>
c000238e:	83 c4 10             	add    $0x10,%esp
c0002391:	8b 45 f0             	mov    -0x10(%ebp),%eax
c0002394:	3b 45 0c             	cmp    0xc(%ebp),%eax
c0002397:	72 d5                	jb     c000236e <vaddr_get+0xb2>
c0002399:	8b 45 e8             	mov    -0x18(%ebp),%eax
c000239c:	8b 40 3c             	mov    0x3c(%eax),%eax
c000239f:	8b 55 ec             	mov    -0x14(%ebp),%edx
c00023a2:	c1 e2 0c             	shl    $0xc,%edx
c00023a5:	01 d0                	add    %edx,%eax
c00023a7:	89 45 f4             	mov    %eax,-0xc(%ebp)
c00023aa:	8b 45 f4             	mov    -0xc(%ebp),%eax
c00023ad:	3d ff ef ff bf       	cmp    $0xbfffefff,%eax
c00023b2:	76 19                	jbe    c00023cd <vaddr_get+0x111>
c00023b4:	68 e8 4b 00 c0       	push   $0xc0004be8
c00023b9:	68 8c 4d 00 c0       	push   $0xc0004d8c
c00023be:	6a 3e                	push   $0x3e
c00023c0:	68 17 4c 00 c0       	push   $0xc0004c17
c00023c5:	e8 3f f8 ff ff       	call   c0001c09 <panic_spin>
c00023ca:	83 c4 10             	add    $0x10,%esp
c00023cd:	8b 45 f4             	mov    -0xc(%ebp),%eax
c00023d0:	c9                   	leave  
c00023d1:	c3                   	ret    

c00023d2 <pte_ptr>:
c00023d2:	55                   	push   %ebp
c00023d3:	89 e5                	mov    %esp,%ebp
c00023d5:	83 ec 10             	sub    $0x10,%esp
c00023d8:	8b 45 08             	mov    0x8(%ebp),%eax
c00023db:	c1 e8 0a             	shr    $0xa,%eax
c00023de:	25 00 f0 3f 00       	and    $0x3ff000,%eax
c00023e3:	89 c2                	mov    %eax,%edx
c00023e5:	8b 45 08             	mov    0x8(%ebp),%eax
c00023e8:	c1 e8 0c             	shr    $0xc,%eax
c00023eb:	25 ff 03 00 00       	and    $0x3ff,%eax
c00023f0:	c1 e0 02             	shl    $0x2,%eax
c00023f3:	01 d0                	add    %edx,%eax
c00023f5:	2d 00 00 40 00       	sub    $0x400000,%eax
c00023fa:	89 45 fc             	mov    %eax,-0x4(%ebp)
c00023fd:	8b 45 fc             	mov    -0x4(%ebp),%eax
c0002400:	c9                   	leave  
c0002401:	c3                   	ret    

c0002402 <pde_ptr>:
c0002402:	55                   	push   %ebp
c0002403:	89 e5                	mov    %esp,%ebp
c0002405:	83 ec 10             	sub    $0x10,%esp
c0002408:	8b 45 08             	mov    0x8(%ebp),%eax
c000240b:	c1 e8 16             	shr    $0x16,%eax
c000240e:	05 00 fc ff 3f       	add    $0x3ffffc00,%eax
c0002413:	c1 e0 02             	shl    $0x2,%eax
c0002416:	89 45 fc             	mov    %eax,-0x4(%ebp)
c0002419:	8b 45 fc             	mov    -0x4(%ebp),%eax
c000241c:	c9                   	leave  
c000241d:	c3                   	ret    

c000241e <palloc>:
c000241e:	55                   	push   %ebp
c000241f:	89 e5                	mov    %esp,%ebp
c0002421:	83 ec 18             	sub    $0x18,%esp
c0002424:	8b 45 08             	mov    0x8(%ebp),%eax
c0002427:	83 ec 08             	sub    $0x8,%esp
c000242a:	6a 01                	push   $0x1
c000242c:	50                   	push   %eax
c000242d:	e8 b5 fc ff ff       	call   c00020e7 <bitmap_scan>
c0002432:	83 c4 10             	add    $0x10,%esp
c0002435:	89 45 f4             	mov    %eax,-0xc(%ebp)
c0002438:	83 7d f4 ff          	cmpl   $0xffffffff,-0xc(%ebp)
c000243c:	75 07                	jne    c0002445 <palloc+0x27>
c000243e:	b8 00 00 00 00       	mov    $0x0,%eax
c0002443:	eb 2b                	jmp    c0002470 <palloc+0x52>
c0002445:	8b 55 f4             	mov    -0xc(%ebp),%edx
c0002448:	8b 45 08             	mov    0x8(%ebp),%eax
c000244b:	83 ec 04             	sub    $0x4,%esp
c000244e:	6a 01                	push   $0x1
c0002450:	52                   	push   %edx
c0002451:	50                   	push   %eax
c0002452:	e8 b1 fd ff ff       	call   c0002208 <bitmap_set>
c0002457:	83 c4 10             	add    $0x10,%esp
c000245a:	8b 45 f4             	mov    -0xc(%ebp),%eax
c000245d:	c1 e0 0c             	shl    $0xc,%eax
c0002460:	89 c2                	mov    %eax,%edx
c0002462:	8b 45 08             	mov    0x8(%ebp),%eax
c0002465:	8b 40 08             	mov    0x8(%eax),%eax
c0002468:	01 d0                	add    %edx,%eax
c000246a:	89 45 f0             	mov    %eax,-0x10(%ebp)
c000246d:	8b 45 f0             	mov    -0x10(%ebp),%eax
c0002470:	c9                   	leave  
c0002471:	c3                   	ret    

c0002472 <page_table_add>:
c0002472:	55                   	push   %ebp
c0002473:	89 e5                	mov    %esp,%ebp
c0002475:	83 ec 28             	sub    $0x28,%esp
c0002478:	8b 45 08             	mov    0x8(%ebp),%eax
c000247b:	89 45 f4             	mov    %eax,-0xc(%ebp)
c000247e:	8b 45 0c             	mov    0xc(%ebp),%eax
c0002481:	89 45 f0             	mov    %eax,-0x10(%ebp)
c0002484:	ff 75 f4             	push   -0xc(%ebp)
c0002487:	e8 76 ff ff ff       	call   c0002402 <pde_ptr>
c000248c:	83 c4 04             	add    $0x4,%esp
c000248f:	89 45 ec             	mov    %eax,-0x14(%ebp)
c0002492:	ff 75 f4             	push   -0xc(%ebp)
c0002495:	e8 38 ff ff ff       	call   c00023d2 <pte_ptr>
c000249a:	83 c4 04             	add    $0x4,%esp
c000249d:	89 45 e8             	mov    %eax,-0x18(%ebp)
c00024a0:	8b 45 ec             	mov    -0x14(%ebp),%eax
c00024a3:	8b 00                	mov    (%eax),%eax
c00024a5:	83 e0 01             	and    $0x1,%eax
c00024a8:	85 c0                	test   %eax,%eax
c00024aa:	74 5e                	je     c000250a <page_table_add+0x98>
c00024ac:	8b 45 e8             	mov    -0x18(%ebp),%eax
c00024af:	8b 00                	mov    (%eax),%eax
c00024b1:	83 e0 01             	and    $0x1,%eax
c00024b4:	85 c0                	test   %eax,%eax
c00024b6:	74 19                	je     c00024d1 <page_table_add+0x5f>
c00024b8:	68 27 4c 00 c0       	push   $0xc0004c27
c00024bd:	68 98 4d 00 c0       	push   $0xc0004d98
c00024c2:	6a 65                	push   $0x65
c00024c4:	68 17 4c 00 c0       	push   $0xc0004c17
c00024c9:	e8 3b f7 ff ff       	call   c0001c09 <panic_spin>
c00024ce:	83 c4 10             	add    $0x10,%esp
c00024d1:	8b 45 e8             	mov    -0x18(%ebp),%eax
c00024d4:	8b 00                	mov    (%eax),%eax
c00024d6:	83 e0 01             	and    $0x1,%eax
c00024d9:	85 c0                	test   %eax,%eax
c00024db:	75 12                	jne    c00024ef <page_table_add+0x7d>
c00024dd:	8b 45 f0             	mov    -0x10(%ebp),%eax
c00024e0:	83 c8 07             	or     $0x7,%eax
c00024e3:	89 c2                	mov    %eax,%edx
c00024e5:	8b 45 e8             	mov    -0x18(%ebp),%eax
c00024e8:	89 10                	mov    %edx,(%eax)
c00024ea:	e9 88 00 00 00       	jmp    c0002577 <page_table_add+0x105>
c00024ef:	68 3c 4c 00 c0       	push   $0xc0004c3c
c00024f4:	68 98 4d 00 c0       	push   $0xc0004d98
c00024f9:	6a 69                	push   $0x69
c00024fb:	68 17 4c 00 c0       	push   $0xc0004c17
c0002500:	e8 04 f7 ff ff       	call   c0001c09 <panic_spin>
c0002505:	83 c4 10             	add    $0x10,%esp
c0002508:	eb 6d                	jmp    c0002577 <page_table_add+0x105>
c000250a:	83 ec 0c             	sub    $0xc,%esp
c000250d:	68 60 68 00 c0       	push   $0xc0006860
c0002512:	e8 07 ff ff ff       	call   c000241e <palloc>
c0002517:	83 c4 10             	add    $0x10,%esp
c000251a:	89 45 e4             	mov    %eax,-0x1c(%ebp)
c000251d:	8b 45 e4             	mov    -0x1c(%ebp),%eax
c0002520:	83 c8 07             	or     $0x7,%eax
c0002523:	89 c2                	mov    %eax,%edx
c0002525:	8b 45 ec             	mov    -0x14(%ebp),%eax
c0002528:	89 10                	mov    %edx,(%eax)
c000252a:	8b 45 e8             	mov    -0x18(%ebp),%eax
c000252d:	25 00 f0 ff ff       	and    $0xfffff000,%eax
c0002532:	83 ec 04             	sub    $0x4,%esp
c0002535:	68 00 10 00 00       	push   $0x1000
c000253a:	6a 00                	push   $0x0
c000253c:	50                   	push   %eax
c000253d:	e8 9d f7 ff ff       	call   c0001cdf <memset>
c0002542:	83 c4 10             	add    $0x10,%esp
c0002545:	8b 45 e8             	mov    -0x18(%ebp),%eax
c0002548:	8b 00                	mov    (%eax),%eax
c000254a:	83 e0 01             	and    $0x1,%eax
c000254d:	85 c0                	test   %eax,%eax
c000254f:	74 19                	je     c000256a <page_table_add+0xf8>
c0002551:	68 27 4c 00 c0       	push   $0xc0004c27
c0002556:	68 98 4d 00 c0       	push   $0xc0004d98
c000255b:	6a 79                	push   $0x79
c000255d:	68 17 4c 00 c0       	push   $0xc0004c17
c0002562:	e8 a2 f6 ff ff       	call   c0001c09 <panic_spin>
c0002567:	83 c4 10             	add    $0x10,%esp
c000256a:	8b 45 f0             	mov    -0x10(%ebp),%eax
c000256d:	83 c8 07             	or     $0x7,%eax
c0002570:	89 c2                	mov    %eax,%edx
c0002572:	8b 45 e8             	mov    -0x18(%ebp),%eax
c0002575:	89 10                	mov    %edx,(%eax)
c0002577:	90                   	nop
c0002578:	c9                   	leave  
c0002579:	c3                   	ret    

c000257a <malloc_page>:
c000257a:	55                   	push   %ebp
c000257b:	89 e5                	mov    %esp,%ebp
c000257d:	83 ec 28             	sub    $0x28,%esp
c0002580:	83 7d 0c 00          	cmpl   $0x0,0xc(%ebp)
c0002584:	74 09                	je     c000258f <malloc_page+0x15>
c0002586:	81 7d 0c ff 0e 00 00 	cmpl   $0xeff,0xc(%ebp)
c000258d:	76 1c                	jbe    c00025ab <malloc_page+0x31>
c000258f:	68 47 4c 00 c0       	push   $0xc0004c47
c0002594:	68 a8 4d 00 c0       	push   $0xc0004da8
c0002599:	68 80 00 00 00       	push   $0x80
c000259e:	68 17 4c 00 c0       	push   $0xc0004c17
c00025a3:	e8 61 f6 ff ff       	call   c0001c09 <panic_spin>
c00025a8:	83 c4 10             	add    $0x10,%esp
c00025ab:	83 ec 08             	sub    $0x8,%esp
c00025ae:	ff 75 0c             	push   0xc(%ebp)
c00025b1:	ff 75 08             	push   0x8(%ebp)
c00025b4:	e8 03 fd ff ff       	call   c00022bc <vaddr_get>
c00025b9:	83 c4 10             	add    $0x10,%esp
c00025bc:	89 45 ec             	mov    %eax,-0x14(%ebp)
c00025bf:	83 7d ec 00          	cmpl   $0x0,-0x14(%ebp)
c00025c3:	75 07                	jne    c00025cc <malloc_page+0x52>
c00025c5:	b8 00 00 00 00       	mov    $0x0,%eax
c00025ca:	eb 6e                	jmp    c000263a <malloc_page+0xc0>
c00025cc:	8b 45 ec             	mov    -0x14(%ebp),%eax
c00025cf:	89 45 f4             	mov    %eax,-0xc(%ebp)
c00025d2:	8b 45 0c             	mov    0xc(%ebp),%eax
c00025d5:	89 45 f0             	mov    %eax,-0x10(%ebp)
c00025d8:	8b 45 08             	mov    0x8(%ebp),%eax
c00025db:	83 e0 01             	and    $0x1,%eax
c00025de:	85 c0                	test   %eax,%eax
c00025e0:	74 07                	je     c00025e9 <malloc_page+0x6f>
c00025e2:	b8 60 68 00 c0       	mov    $0xc0006860,%eax
c00025e7:	eb 05                	jmp    c00025ee <malloc_page+0x74>
c00025e9:	b8 a0 68 00 c0       	mov    $0xc00068a0,%eax
c00025ee:	89 45 e8             	mov    %eax,-0x18(%ebp)
c00025f1:	eb 37                	jmp    c000262a <malloc_page+0xb0>
c00025f3:	83 ec 0c             	sub    $0xc,%esp
c00025f6:	ff 75 e8             	push   -0x18(%ebp)
c00025f9:	e8 20 fe ff ff       	call   c000241e <palloc>
c00025fe:	83 c4 10             	add    $0x10,%esp
c0002601:	89 45 e4             	mov    %eax,-0x1c(%ebp)
c0002604:	83 7d e4 00          	cmpl   $0x0,-0x1c(%ebp)
c0002608:	75 07                	jne    c0002611 <malloc_page+0x97>
c000260a:	b8 00 00 00 00       	mov    $0x0,%eax
c000260f:	eb 29                	jmp    c000263a <malloc_page+0xc0>
c0002611:	8b 45 f4             	mov    -0xc(%ebp),%eax
c0002614:	83 ec 08             	sub    $0x8,%esp
c0002617:	ff 75 e4             	push   -0x1c(%ebp)
c000261a:	50                   	push   %eax
c000261b:	e8 52 fe ff ff       	call   c0002472 <page_table_add>
c0002620:	83 c4 10             	add    $0x10,%esp
c0002623:	81 45 f4 00 10 00 00 	addl   $0x1000,-0xc(%ebp)
c000262a:	8b 45 f0             	mov    -0x10(%ebp),%eax
c000262d:	8d 50 ff             	lea    -0x1(%eax),%edx
c0002630:	89 55 f0             	mov    %edx,-0x10(%ebp)
c0002633:	85 c0                	test   %eax,%eax
c0002635:	75 bc                	jne    c00025f3 <malloc_page+0x79>
c0002637:	8b 45 ec             	mov    -0x14(%ebp),%eax
c000263a:	c9                   	leave  
c000263b:	c3                   	ret    

c000263c <get_kernel_pages>:
c000263c:	55                   	push   %ebp
c000263d:	89 e5                	mov    %esp,%ebp
c000263f:	83 ec 18             	sub    $0x18,%esp
c0002642:	83 ec 08             	sub    $0x8,%esp
c0002645:	ff 75 08             	push   0x8(%ebp)
c0002648:	6a 01                	push   $0x1
c000264a:	e8 2b ff ff ff       	call   c000257a <malloc_page>
c000264f:	83 c4 10             	add    $0x10,%esp
c0002652:	89 45 f4             	mov    %eax,-0xc(%ebp)
c0002655:	83 7d f4 00          	cmpl   $0x0,-0xc(%ebp)
c0002659:	74 17                	je     c0002672 <get_kernel_pages+0x36>
c000265b:	8b 45 08             	mov    0x8(%ebp),%eax
c000265e:	c1 e0 0c             	shl    $0xc,%eax
c0002661:	83 ec 04             	sub    $0x4,%esp
c0002664:	50                   	push   %eax
c0002665:	6a 00                	push   $0x0
c0002667:	ff 75 f4             	push   -0xc(%ebp)
c000266a:	e8 70 f6 ff ff       	call   c0001cdf <memset>
c000266f:	83 c4 10             	add    $0x10,%esp
c0002672:	8b 45 f4             	mov    -0xc(%ebp),%eax
c0002675:	c9                   	leave  
c0002676:	c3                   	ret    

c0002677 <get_user_pages>:
c0002677:	55                   	push   %ebp
c0002678:	89 e5                	mov    %esp,%ebp
c000267a:	83 ec 18             	sub    $0x18,%esp
c000267d:	83 ec 0c             	sub    $0xc,%esp
c0002680:	68 b0 68 00 c0       	push   $0xc00068b0
c0002685:	e8 4b 0d 00 00       	call   c00033d5 <lock_acquire>
c000268a:	83 c4 10             	add    $0x10,%esp
c000268d:	83 ec 08             	sub    $0x8,%esp
c0002690:	ff 75 08             	push   0x8(%ebp)
c0002693:	6a 02                	push   $0x2
c0002695:	e8 e0 fe ff ff       	call   c000257a <malloc_page>
c000269a:	83 c4 10             	add    $0x10,%esp
c000269d:	89 45 f4             	mov    %eax,-0xc(%ebp)
c00026a0:	8b 45 08             	mov    0x8(%ebp),%eax
c00026a3:	c1 e0 0c             	shl    $0xc,%eax
c00026a6:	83 ec 04             	sub    $0x4,%esp
c00026a9:	50                   	push   %eax
c00026aa:	6a 00                	push   $0x0
c00026ac:	ff 75 f4             	push   -0xc(%ebp)
c00026af:	e8 2b f6 ff ff       	call   c0001cdf <memset>
c00026b4:	83 c4 10             	add    $0x10,%esp
c00026b7:	83 ec 0c             	sub    $0xc,%esp
c00026ba:	68 b0 68 00 c0       	push   $0xc00068b0
c00026bf:	e8 86 0d 00 00       	call   c000344a <lock_release>
c00026c4:	83 c4 10             	add    $0x10,%esp
c00026c7:	8b 45 f4             	mov    -0xc(%ebp),%eax
c00026ca:	c9                   	leave  
c00026cb:	c3                   	ret    

c00026cc <get_a_page>:
c00026cc:	55                   	push   %ebp
c00026cd:	89 e5                	mov    %esp,%ebp
c00026cf:	83 ec 18             	sub    $0x18,%esp
c00026d2:	8b 45 08             	mov    0x8(%ebp),%eax
c00026d5:	83 e0 01             	and    $0x1,%eax
c00026d8:	85 c0                	test   %eax,%eax
c00026da:	74 07                	je     c00026e3 <get_a_page+0x17>
c00026dc:	b8 60 68 00 c0       	mov    $0xc0006860,%eax
c00026e1:	eb 05                	jmp    c00026e8 <get_a_page+0x1c>
c00026e3:	b8 a0 68 00 c0       	mov    $0xc00068a0,%eax
c00026e8:	89 45 f4             	mov    %eax,-0xc(%ebp)
c00026eb:	8b 45 f4             	mov    -0xc(%ebp),%eax
c00026ee:	83 c0 10             	add    $0x10,%eax
c00026f1:	83 ec 0c             	sub    $0xc,%esp
c00026f4:	50                   	push   %eax
c00026f5:	e8 db 0c 00 00       	call   c00033d5 <lock_acquire>
c00026fa:	83 c4 10             	add    $0x10,%esp
c00026fd:	e8 92 03 00 00       	call   c0002a94 <running_thread>
c0002702:	89 45 f0             	mov    %eax,-0x10(%ebp)
c0002705:	c7 45 ec ff ff ff ff 	movl   $0xffffffff,-0x14(%ebp)
c000270c:	8b 45 f0             	mov    -0x10(%ebp),%eax
c000270f:	8b 40 30             	mov    0x30(%eax),%eax
c0002712:	85 c0                	test   %eax,%eax
c0002714:	74 55                	je     c000276b <get_a_page+0x9f>
c0002716:	83 7d 08 02          	cmpl   $0x2,0x8(%ebp)
c000271a:	75 4f                	jne    c000276b <get_a_page+0x9f>
c000271c:	8b 45 f0             	mov    -0x10(%ebp),%eax
c000271f:	8b 40 3c             	mov    0x3c(%eax),%eax
c0002722:	8b 55 0c             	mov    0xc(%ebp),%edx
c0002725:	29 c2                	sub    %eax,%edx
c0002727:	89 d0                	mov    %edx,%eax
c0002729:	c1 e8 0c             	shr    $0xc,%eax
c000272c:	89 45 ec             	mov    %eax,-0x14(%ebp)
c000272f:	83 7d ec 00          	cmpl   $0x0,-0x14(%ebp)
c0002733:	7f 1c                	jg     c0002751 <get_a_page+0x85>
c0002735:	68 63 4c 00 c0       	push   $0xc0004c63
c000273a:	68 b4 4d 00 c0       	push   $0xc0004db4
c000273f:	68 b6 00 00 00       	push   $0xb6
c0002744:	68 17 4c 00 c0       	push   $0xc0004c17
c0002749:	e8 bb f4 ff ff       	call   c0001c09 <panic_spin>
c000274e:	83 c4 10             	add    $0x10,%esp
c0002751:	8b 45 ec             	mov    -0x14(%ebp),%eax
c0002754:	8b 55 f0             	mov    -0x10(%ebp),%edx
c0002757:	83 c2 34             	add    $0x34,%edx
c000275a:	83 ec 04             	sub    $0x4,%esp
c000275d:	6a 01                	push   $0x1
c000275f:	50                   	push   %eax
c0002760:	52                   	push   %edx
c0002761:	e8 a2 fa ff ff       	call   c0002208 <bitmap_set>
c0002766:	83 c4 10             	add    $0x10,%esp
c0002769:	eb 78                	jmp    c00027e3 <get_a_page+0x117>
c000276b:	8b 45 f0             	mov    -0x10(%ebp),%eax
c000276e:	8b 40 30             	mov    0x30(%eax),%eax
c0002771:	85 c0                	test   %eax,%eax
c0002773:	75 52                	jne    c00027c7 <get_a_page+0xfb>
c0002775:	83 7d 08 01          	cmpl   $0x1,0x8(%ebp)
c0002779:	75 4c                	jne    c00027c7 <get_a_page+0xfb>
c000277b:	a1 d4 68 00 c0       	mov    0xc00068d4,%eax
c0002780:	8b 55 0c             	mov    0xc(%ebp),%edx
c0002783:	29 c2                	sub    %eax,%edx
c0002785:	89 d0                	mov    %edx,%eax
c0002787:	c1 e8 0c             	shr    $0xc,%eax
c000278a:	89 45 ec             	mov    %eax,-0x14(%ebp)
c000278d:	83 7d ec 00          	cmpl   $0x0,-0x14(%ebp)
c0002791:	7f 1c                	jg     c00027af <get_a_page+0xe3>
c0002793:	68 63 4c 00 c0       	push   $0xc0004c63
c0002798:	68 b4 4d 00 c0       	push   $0xc0004db4
c000279d:	68 bc 00 00 00       	push   $0xbc
c00027a2:	68 17 4c 00 c0       	push   $0xc0004c17
c00027a7:	e8 5d f4 ff ff       	call   c0001c09 <panic_spin>
c00027ac:	83 c4 10             	add    $0x10,%esp
c00027af:	8b 45 ec             	mov    -0x14(%ebp),%eax
c00027b2:	83 ec 04             	sub    $0x4,%esp
c00027b5:	6a 01                	push   $0x1
c00027b7:	50                   	push   %eax
c00027b8:	68 cc 68 00 c0       	push   $0xc00068cc
c00027bd:	e8 46 fa ff ff       	call   c0002208 <bitmap_set>
c00027c2:	83 c4 10             	add    $0x10,%esp
c00027c5:	eb 1c                	jmp    c00027e3 <get_a_page+0x117>
c00027c7:	68 70 4c 00 c0       	push   $0xc0004c70
c00027cc:	68 b4 4d 00 c0       	push   $0xc0004db4
c00027d1:	68 bf 00 00 00       	push   $0xbf
c00027d6:	68 17 4c 00 c0       	push   $0xc0004c17
c00027db:	e8 29 f4 ff ff       	call   c0001c09 <panic_spin>
c00027e0:	83 c4 10             	add    $0x10,%esp
c00027e3:	83 ec 0c             	sub    $0xc,%esp
c00027e6:	ff 75 f4             	push   -0xc(%ebp)
c00027e9:	e8 30 fc ff ff       	call   c000241e <palloc>
c00027ee:	83 c4 10             	add    $0x10,%esp
c00027f1:	89 45 e8             	mov    %eax,-0x18(%ebp)
c00027f4:	83 7d e8 00          	cmpl   $0x0,-0x18(%ebp)
c00027f8:	75 07                	jne    c0002801 <get_a_page+0x135>
c00027fa:	b8 00 00 00 00       	mov    $0x0,%eax
c00027ff:	eb 27                	jmp    c0002828 <get_a_page+0x15c>
c0002801:	8b 45 0c             	mov    0xc(%ebp),%eax
c0002804:	83 ec 08             	sub    $0x8,%esp
c0002807:	ff 75 e8             	push   -0x18(%ebp)
c000280a:	50                   	push   %eax
c000280b:	e8 62 fc ff ff       	call   c0002472 <page_table_add>
c0002810:	83 c4 10             	add    $0x10,%esp
c0002813:	8b 45 f4             	mov    -0xc(%ebp),%eax
c0002816:	83 c0 10             	add    $0x10,%eax
c0002819:	83 ec 0c             	sub    $0xc,%esp
c000281c:	50                   	push   %eax
c000281d:	e8 28 0c 00 00       	call   c000344a <lock_release>
c0002822:	83 c4 10             	add    $0x10,%esp
c0002825:	8b 45 0c             	mov    0xc(%ebp),%eax
c0002828:	c9                   	leave  
c0002829:	c3                   	ret    

c000282a <addr_v2p>:
c000282a:	55                   	push   %ebp
c000282b:	89 e5                	mov    %esp,%ebp
c000282d:	83 ec 10             	sub    $0x10,%esp
c0002830:	ff 75 08             	push   0x8(%ebp)
c0002833:	e8 9a fb ff ff       	call   c00023d2 <pte_ptr>
c0002838:	83 c4 04             	add    $0x4,%esp
c000283b:	89 45 fc             	mov    %eax,-0x4(%ebp)
c000283e:	8b 45 fc             	mov    -0x4(%ebp),%eax
c0002841:	8b 00                	mov    (%eax),%eax
c0002843:	25 00 f0 ff ff       	and    $0xfffff000,%eax
c0002848:	89 c2                	mov    %eax,%edx
c000284a:	8b 45 08             	mov    0x8(%ebp),%eax
c000284d:	25 ff 0f 00 00       	and    $0xfff,%eax
c0002852:	09 d0                	or     %edx,%eax
c0002854:	c9                   	leave  
c0002855:	c3                   	ret    

c0002856 <mem_pool_init>:
c0002856:	55                   	push   %ebp
c0002857:	89 e5                	mov    %esp,%ebp
c0002859:	83 ec 38             	sub    $0x38,%esp
c000285c:	83 ec 0c             	sub    $0xc,%esp
c000285f:	68 c4 4c 00 c0       	push   $0xc0004cc4
c0002864:	e8 f7 17 00 00       	call   c0004060 <put_str>
c0002869:	83 c4 10             	add    $0x10,%esp
c000286c:	c7 45 f4 00 00 10 00 	movl   $0x100000,-0xc(%ebp)
c0002873:	8b 45 f4             	mov    -0xc(%ebp),%eax
c0002876:	05 00 00 10 00       	add    $0x100000,%eax
c000287b:	89 45 f0             	mov    %eax,-0x10(%ebp)
c000287e:	8b 45 08             	mov    0x8(%ebp),%eax
c0002881:	2b 45 f0             	sub    -0x10(%ebp),%eax
c0002884:	89 45 ec             	mov    %eax,-0x14(%ebp)
c0002887:	8b 45 ec             	mov    -0x14(%ebp),%eax
c000288a:	c1 e8 0c             	shr    $0xc,%eax
c000288d:	66 89 45 ea          	mov    %ax,-0x16(%ebp)
c0002891:	66 8b 45 ea          	mov    -0x16(%ebp),%ax
c0002895:	66 d1 e8             	shr    %ax
c0002898:	66 89 45 e8          	mov    %ax,-0x18(%ebp)
c000289c:	66 8b 45 ea          	mov    -0x16(%ebp),%ax
c00028a0:	2b 45 e8             	sub    -0x18(%ebp),%eax
c00028a3:	66 89 45 e6          	mov    %ax,-0x1a(%ebp)
c00028a7:	8b 45 e8             	mov    -0x18(%ebp),%eax
c00028aa:	66 c1 e8 03          	shr    $0x3,%ax
c00028ae:	0f b7 c0             	movzwl %ax,%eax
c00028b1:	89 45 e0             	mov    %eax,-0x20(%ebp)
c00028b4:	66 8b 45 e6          	mov    -0x1a(%ebp),%ax
c00028b8:	66 c1 e8 03          	shr    $0x3,%ax
c00028bc:	0f b7 c0             	movzwl %ax,%eax
c00028bf:	89 45 dc             	mov    %eax,-0x24(%ebp)
c00028c2:	8b 45 f0             	mov    -0x10(%ebp),%eax
c00028c5:	89 45 d8             	mov    %eax,-0x28(%ebp)
c00028c8:	0f b7 45 e8          	movzwl -0x18(%ebp),%eax
c00028cc:	c1 e0 0c             	shl    $0xc,%eax
c00028cf:	89 c2                	mov    %eax,%edx
c00028d1:	8b 45 d8             	mov    -0x28(%ebp),%eax
c00028d4:	01 d0                	add    %edx,%eax
c00028d6:	89 45 d4             	mov    %eax,-0x2c(%ebp)
c00028d9:	8b 45 d8             	mov    -0x28(%ebp),%eax
c00028dc:	a3 68 68 00 c0       	mov    %eax,0xc0006868
c00028e1:	8b 45 d4             	mov    -0x2c(%ebp),%eax
c00028e4:	a3 a8 68 00 c0       	mov    %eax,0xc00068a8
c00028e9:	0f b7 45 e8          	movzwl -0x18(%ebp),%eax
c00028ed:	c1 e0 0c             	shl    $0xc,%eax
c00028f0:	a3 6c 68 00 c0       	mov    %eax,0xc000686c
c00028f5:	0f b7 45 e6          	movzwl -0x1a(%ebp),%eax
c00028f9:	c1 e0 0c             	shl    $0xc,%eax
c00028fc:	a3 ac 68 00 c0       	mov    %eax,0xc00068ac
c0002901:	8b 45 e0             	mov    -0x20(%ebp),%eax
c0002904:	a3 60 68 00 c0       	mov    %eax,0xc0006860
c0002909:	8b 45 dc             	mov    -0x24(%ebp),%eax
c000290c:	a3 a0 68 00 c0       	mov    %eax,0xc00068a0
c0002911:	c7 05 64 68 00 c0 00 	movl   $0xc009a000,0xc0006864
c0002918:	a0 09 c0 
c000291b:	8b 45 e0             	mov    -0x20(%ebp),%eax
c000291e:	2d 00 60 f6 3f       	sub    $0x3ff66000,%eax
c0002923:	a3 a4 68 00 c0       	mov    %eax,0xc00068a4
c0002928:	83 ec 0c             	sub    $0xc,%esp
c000292b:	68 dc 4c 00 c0       	push   $0xc0004cdc
c0002930:	e8 2b 17 00 00       	call   c0004060 <put_str>
c0002935:	83 c4 10             	add    $0x10,%esp
c0002938:	a1 64 68 00 c0       	mov    0xc0006864,%eax
c000293d:	83 ec 0c             	sub    $0xc,%esp
c0002940:	50                   	push   %eax
c0002941:	e8 05 18 00 00       	call   c000414b <put_int>
c0002946:	83 c4 10             	add    $0x10,%esp
c0002949:	83 ec 0c             	sub    $0xc,%esp
c000294c:	68 fc 4c 00 c0       	push   $0xc0004cfc
c0002951:	e8 0a 17 00 00       	call   c0004060 <put_str>
c0002956:	83 c4 10             	add    $0x10,%esp
c0002959:	a1 68 68 00 c0       	mov    0xc0006868,%eax
c000295e:	83 ec 0c             	sub    $0xc,%esp
c0002961:	50                   	push   %eax
c0002962:	e8 e4 17 00 00       	call   c000414b <put_int>
c0002967:	83 c4 10             	add    $0x10,%esp
c000296a:	83 ec 0c             	sub    $0xc,%esp
c000296d:	68 19 4d 00 c0       	push   $0xc0004d19
c0002972:	e8 e9 16 00 00       	call   c0004060 <put_str>
c0002977:	83 c4 10             	add    $0x10,%esp
c000297a:	83 ec 0c             	sub    $0xc,%esp
c000297d:	68 1b 4d 00 c0       	push   $0xc0004d1b
c0002982:	e8 d9 16 00 00       	call   c0004060 <put_str>
c0002987:	83 c4 10             	add    $0x10,%esp
c000298a:	a1 a4 68 00 c0       	mov    0xc00068a4,%eax
c000298f:	83 ec 0c             	sub    $0xc,%esp
c0002992:	50                   	push   %eax
c0002993:	e8 b3 17 00 00       	call   c000414b <put_int>
c0002998:	83 c4 10             	add    $0x10,%esp
c000299b:	83 ec 0c             	sub    $0xc,%esp
c000299e:	68 39 4d 00 c0       	push   $0xc0004d39
c00029a3:	e8 b8 16 00 00       	call   c0004060 <put_str>
c00029a8:	83 c4 10             	add    $0x10,%esp
c00029ab:	a1 a8 68 00 c0       	mov    0xc00068a8,%eax
c00029b0:	83 ec 0c             	sub    $0xc,%esp
c00029b3:	50                   	push   %eax
c00029b4:	e8 92 17 00 00       	call   c000414b <put_int>
c00029b9:	83 c4 10             	add    $0x10,%esp
c00029bc:	83 ec 0c             	sub    $0xc,%esp
c00029bf:	68 19 4d 00 c0       	push   $0xc0004d19
c00029c4:	e8 97 16 00 00       	call   c0004060 <put_str>
c00029c9:	83 c4 10             	add    $0x10,%esp
c00029cc:	83 ec 0c             	sub    $0xc,%esp
c00029cf:	68 60 68 00 c0       	push   $0xc0006860
c00029d4:	e8 ad f6 ff ff       	call   c0002086 <bitmap_init>
c00029d9:	83 c4 10             	add    $0x10,%esp
c00029dc:	83 ec 0c             	sub    $0xc,%esp
c00029df:	68 a0 68 00 c0       	push   $0xc00068a0
c00029e4:	e8 9d f6 ff ff       	call   c0002086 <bitmap_init>
c00029e9:	83 c4 10             	add    $0x10,%esp
c00029ec:	83 ec 0c             	sub    $0xc,%esp
c00029ef:	68 70 68 00 c0       	push   $0xc0006870
c00029f4:	e8 08 08 00 00       	call   c0003201 <lock_init>
c00029f9:	83 c4 10             	add    $0x10,%esp
c00029fc:	83 ec 0c             	sub    $0xc,%esp
c00029ff:	68 b0 68 00 c0       	push   $0xc00068b0
c0002a04:	e8 f8 07 00 00       	call   c0003201 <lock_init>
c0002a09:	83 c4 10             	add    $0x10,%esp
c0002a0c:	8b 45 e0             	mov    -0x20(%ebp),%eax
c0002a0f:	a3 cc 68 00 c0       	mov    %eax,0xc00068cc
c0002a14:	8b 55 e0             	mov    -0x20(%ebp),%edx
c0002a17:	8b 45 dc             	mov    -0x24(%ebp),%eax
c0002a1a:	01 d0                	add    %edx,%eax
c0002a1c:	2d 00 60 f6 3f       	sub    $0x3ff66000,%eax
c0002a21:	a3 d0 68 00 c0       	mov    %eax,0xc00068d0
c0002a26:	c7 05 d4 68 00 c0 00 	movl   $0xc0100000,0xc00068d4
c0002a2d:	00 10 c0 
c0002a30:	83 ec 0c             	sub    $0xc,%esp
c0002a33:	68 cc 68 00 c0       	push   $0xc00068cc
c0002a38:	e8 49 f6 ff ff       	call   c0002086 <bitmap_init>
c0002a3d:	83 c4 10             	add    $0x10,%esp
c0002a40:	83 ec 0c             	sub    $0xc,%esp
c0002a43:	68 54 4d 00 c0       	push   $0xc0004d54
c0002a48:	e8 13 16 00 00       	call   c0004060 <put_str>
c0002a4d:	83 c4 10             	add    $0x10,%esp
c0002a50:	90                   	nop
c0002a51:	c9                   	leave  
c0002a52:	c3                   	ret    

c0002a53 <mem_init>:
c0002a53:	55                   	push   %ebp
c0002a54:	89 e5                	mov    %esp,%ebp
c0002a56:	83 ec 18             	sub    $0x18,%esp
c0002a59:	83 ec 0c             	sub    $0xc,%esp
c0002a5c:	68 6b 4d 00 c0       	push   $0xc0004d6b
c0002a61:	e8 fa 15 00 00       	call   c0004060 <put_str>
c0002a66:	83 c4 10             	add    $0x10,%esp
c0002a69:	b8 00 0b 00 00       	mov    $0xb00,%eax
c0002a6e:	8b 00                	mov    (%eax),%eax
c0002a70:	89 45 f4             	mov    %eax,-0xc(%ebp)
c0002a73:	83 ec 0c             	sub    $0xc,%esp
c0002a76:	ff 75 f4             	push   -0xc(%ebp)
c0002a79:	e8 d8 fd ff ff       	call   c0002856 <mem_pool_init>
c0002a7e:	83 c4 10             	add    $0x10,%esp
c0002a81:	83 ec 0c             	sub    $0xc,%esp
c0002a84:	68 7b 4d 00 c0       	push   $0xc0004d7b
c0002a89:	e8 d2 15 00 00       	call   c0004060 <put_str>
c0002a8e:	83 c4 10             	add    $0x10,%esp
c0002a91:	90                   	nop
c0002a92:	c9                   	leave  
c0002a93:	c3                   	ret    

c0002a94 <running_thread>:
c0002a94:	55                   	push   %ebp
c0002a95:	89 e5                	mov    %esp,%ebp
c0002a97:	83 ec 10             	sub    $0x10,%esp
c0002a9a:	89 e0                	mov    %esp,%eax
c0002a9c:	89 45 fc             	mov    %eax,-0x4(%ebp)
c0002a9f:	8b 45 fc             	mov    -0x4(%ebp),%eax
c0002aa2:	25 00 f0 ff ff       	and    $0xfffff000,%eax
c0002aa7:	c9                   	leave  
c0002aa8:	c3                   	ret    

c0002aa9 <kernel_thread>:
c0002aa9:	55                   	push   %ebp
c0002aaa:	89 e5                	mov    %esp,%ebp
c0002aac:	83 ec 08             	sub    $0x8,%esp
c0002aaf:	e8 d2 ee ff ff       	call   c0001986 <intr_enable>
c0002ab4:	83 ec 0c             	sub    $0xc,%esp
c0002ab7:	ff 75 0c             	push   0xc(%ebp)
c0002aba:	8b 45 08             	mov    0x8(%ebp),%eax
c0002abd:	ff d0                	call   *%eax
c0002abf:	83 c4 10             	add    $0x10,%esp
c0002ac2:	90                   	nop
c0002ac3:	c9                   	leave  
c0002ac4:	c3                   	ret    

c0002ac5 <thread_create>:
c0002ac5:	55                   	push   %ebp
c0002ac6:	89 e5                	mov    %esp,%ebp
c0002ac8:	83 ec 10             	sub    $0x10,%esp
c0002acb:	8b 45 08             	mov    0x8(%ebp),%eax
c0002ace:	8b 00                	mov    (%eax),%eax
c0002ad0:	8d 90 d0 fe ff ff    	lea    -0x130(%eax),%edx
c0002ad6:	8b 45 08             	mov    0x8(%ebp),%eax
c0002ad9:	89 10                	mov    %edx,(%eax)
c0002adb:	8b 45 08             	mov    0x8(%ebp),%eax
c0002ade:	8b 00                	mov    (%eax),%eax
c0002ae0:	8d 50 80             	lea    -0x80(%eax),%edx
c0002ae3:	8b 45 08             	mov    0x8(%ebp),%eax
c0002ae6:	89 10                	mov    %edx,(%eax)
c0002ae8:	8b 45 08             	mov    0x8(%ebp),%eax
c0002aeb:	8b 00                	mov    (%eax),%eax
c0002aed:	89 45 fc             	mov    %eax,-0x4(%ebp)
c0002af0:	8b 45 fc             	mov    -0x4(%ebp),%eax
c0002af3:	c7 40 10 a9 2a 00 c0 	movl   $0xc0002aa9,0x10(%eax)
c0002afa:	8b 45 fc             	mov    -0x4(%ebp),%eax
c0002afd:	8b 55 0c             	mov    0xc(%ebp),%edx
c0002b00:	89 50 18             	mov    %edx,0x18(%eax)
c0002b03:	8b 45 fc             	mov    -0x4(%ebp),%eax
c0002b06:	8b 55 10             	mov    0x10(%ebp),%edx
c0002b09:	89 50 1c             	mov    %edx,0x1c(%eax)
c0002b0c:	8b 45 fc             	mov    -0x4(%ebp),%eax
c0002b0f:	c7 40 08 00 00 00 00 	movl   $0x0,0x8(%eax)
c0002b16:	8b 45 fc             	mov    -0x4(%ebp),%eax
c0002b19:	8b 50 08             	mov    0x8(%eax),%edx
c0002b1c:	8b 45 fc             	mov    -0x4(%ebp),%eax
c0002b1f:	89 50 0c             	mov    %edx,0xc(%eax)
c0002b22:	8b 45 fc             	mov    -0x4(%ebp),%eax
c0002b25:	8b 50 0c             	mov    0xc(%eax),%edx
c0002b28:	8b 45 fc             	mov    -0x4(%ebp),%eax
c0002b2b:	89 50 04             	mov    %edx,0x4(%eax)
c0002b2e:	8b 45 fc             	mov    -0x4(%ebp),%eax
c0002b31:	8b 50 04             	mov    0x4(%eax),%edx
c0002b34:	8b 45 fc             	mov    -0x4(%ebp),%eax
c0002b37:	89 10                	mov    %edx,(%eax)
c0002b39:	90                   	nop
c0002b3a:	c9                   	leave  
c0002b3b:	c3                   	ret    

c0002b3c <init_thread>:
c0002b3c:	55                   	push   %ebp
c0002b3d:	89 e5                	mov    %esp,%ebp
c0002b3f:	83 ec 08             	sub    $0x8,%esp
c0002b42:	83 ec 04             	sub    $0x4,%esp
c0002b45:	6a 44                	push   $0x44
c0002b47:	6a 00                	push   $0x0
c0002b49:	ff 75 08             	push   0x8(%ebp)
c0002b4c:	e8 8e f1 ff ff       	call   c0001cdf <memset>
c0002b51:	83 c4 10             	add    $0x10,%esp
c0002b54:	8b 45 08             	mov    0x8(%ebp),%eax
c0002b57:	83 c0 08             	add    $0x8,%eax
c0002b5a:	83 ec 08             	sub    $0x8,%esp
c0002b5d:	ff 75 0c             	push   0xc(%ebp)
c0002b60:	50                   	push   %eax
c0002b61:	e8 a8 f2 ff ff       	call   c0001e0e <strcpy>
c0002b66:	83 c4 10             	add    $0x10,%esp
c0002b69:	a1 d8 68 00 c0       	mov    0xc00068d8,%eax
c0002b6e:	39 45 08             	cmp    %eax,0x8(%ebp)
c0002b71:	75 0c                	jne    c0002b7f <init_thread+0x43>
c0002b73:	8b 45 08             	mov    0x8(%ebp),%eax
c0002b76:	c7 40 04 00 00 00 00 	movl   $0x0,0x4(%eax)
c0002b7d:	eb 0a                	jmp    c0002b89 <init_thread+0x4d>
c0002b7f:	8b 45 08             	mov    0x8(%ebp),%eax
c0002b82:	c7 40 04 01 00 00 00 	movl   $0x1,0x4(%eax)
c0002b89:	8b 45 08             	mov    0x8(%ebp),%eax
c0002b8c:	05 00 10 00 00       	add    $0x1000,%eax
c0002b91:	89 c2                	mov    %eax,%edx
c0002b93:	8b 45 08             	mov    0x8(%ebp),%eax
c0002b96:	89 10                	mov    %edx,(%eax)
c0002b98:	8b 45 10             	mov    0x10(%ebp),%eax
c0002b9b:	88 c2                	mov    %al,%dl
c0002b9d:	8b 45 08             	mov    0x8(%ebp),%eax
c0002ba0:	88 50 18             	mov    %dl,0x18(%eax)
c0002ba3:	8b 45 10             	mov    0x10(%ebp),%eax
c0002ba6:	88 c2                	mov    %al,%dl
c0002ba8:	8b 45 08             	mov    0x8(%ebp),%eax
c0002bab:	88 50 19             	mov    %dl,0x19(%eax)
c0002bae:	8b 45 08             	mov    0x8(%ebp),%eax
c0002bb1:	c7 40 1c 00 00 00 00 	movl   $0x0,0x1c(%eax)
c0002bb8:	8b 45 08             	mov    0x8(%ebp),%eax
c0002bbb:	c7 40 30 00 00 00 00 	movl   $0x0,0x30(%eax)
c0002bc2:	8b 45 08             	mov    0x8(%ebp),%eax
c0002bc5:	c7 40 40 16 09 87 19 	movl   $0x19870916,0x40(%eax)
c0002bcc:	90                   	nop
c0002bcd:	c9                   	leave  
c0002bce:	c3                   	ret    

c0002bcf <thread_start>:
c0002bcf:	55                   	push   %ebp
c0002bd0:	89 e5                	mov    %esp,%ebp
c0002bd2:	83 ec 18             	sub    $0x18,%esp
c0002bd5:	83 ec 0c             	sub    $0xc,%esp
c0002bd8:	6a 01                	push   $0x1
c0002bda:	e8 5d fa ff ff       	call   c000263c <get_kernel_pages>
c0002bdf:	83 c4 10             	add    $0x10,%esp
c0002be2:	89 45 f4             	mov    %eax,-0xc(%ebp)
c0002be5:	83 ec 04             	sub    $0x4,%esp
c0002be8:	ff 75 0c             	push   0xc(%ebp)
c0002beb:	ff 75 08             	push   0x8(%ebp)
c0002bee:	ff 75 f4             	push   -0xc(%ebp)
c0002bf1:	e8 46 ff ff ff       	call   c0002b3c <init_thread>
c0002bf6:	83 c4 10             	add    $0x10,%esp
c0002bf9:	83 ec 04             	sub    $0x4,%esp
c0002bfc:	ff 75 14             	push   0x14(%ebp)
c0002bff:	ff 75 10             	push   0x10(%ebp)
c0002c02:	ff 75 f4             	push   -0xc(%ebp)
c0002c05:	e8 bb fe ff ff       	call   c0002ac5 <thread_create>
c0002c0a:	83 c4 10             	add    $0x10,%esp
c0002c0d:	8b 45 f4             	mov    -0xc(%ebp),%eax
c0002c10:	83 c0 20             	add    $0x20,%eax
c0002c13:	83 ec 08             	sub    $0x8,%esp
c0002c16:	50                   	push   %eax
c0002c17:	68 dc 68 00 c0       	push   $0xc00068dc
c0002c1c:	e8 d2 04 00 00       	call   c00030f3 <elem_find>
c0002c21:	83 c4 10             	add    $0x10,%esp
c0002c24:	85 c0                	test   %eax,%eax
c0002c26:	74 19                	je     c0002c41 <thread_start+0x72>
c0002c28:	68 c0 4d 00 c0       	push   $0xc0004dc0
c0002c2d:	68 3c 50 00 c0       	push   $0xc000503c
c0002c32:	6a 47                	push   $0x47
c0002c34:	68 f5 4d 00 c0       	push   $0xc0004df5
c0002c39:	e8 cb ef ff ff       	call   c0001c09 <panic_spin>
c0002c3e:	83 c4 10             	add    $0x10,%esp
c0002c41:	8b 45 f4             	mov    -0xc(%ebp),%eax
c0002c44:	83 c0 20             	add    $0x20,%eax
c0002c47:	83 ec 08             	sub    $0x8,%esp
c0002c4a:	50                   	push   %eax
c0002c4b:	68 dc 68 00 c0       	push   $0xc00068dc
c0002c50:	e8 24 04 00 00       	call   c0003079 <list_append>
c0002c55:	83 c4 10             	add    $0x10,%esp
c0002c58:	8b 45 f4             	mov    -0xc(%ebp),%eax
c0002c5b:	83 c0 28             	add    $0x28,%eax
c0002c5e:	83 ec 08             	sub    $0x8,%esp
c0002c61:	50                   	push   %eax
c0002c62:	68 ec 68 00 c0       	push   $0xc00068ec
c0002c67:	e8 87 04 00 00       	call   c00030f3 <elem_find>
c0002c6c:	83 c4 10             	add    $0x10,%esp
c0002c6f:	85 c0                	test   %eax,%eax
c0002c71:	74 19                	je     c0002c8c <thread_start+0xbd>
c0002c73:	68 08 4e 00 c0       	push   $0xc0004e08
c0002c78:	68 3c 50 00 c0       	push   $0xc000503c
c0002c7d:	6a 4a                	push   $0x4a
c0002c7f:	68 f5 4d 00 c0       	push   $0xc0004df5
c0002c84:	e8 80 ef ff ff       	call   c0001c09 <panic_spin>
c0002c89:	83 c4 10             	add    $0x10,%esp
c0002c8c:	8b 45 f4             	mov    -0xc(%ebp),%eax
c0002c8f:	83 c0 28             	add    $0x28,%eax
c0002c92:	83 ec 08             	sub    $0x8,%esp
c0002c95:	50                   	push   %eax
c0002c96:	68 ec 68 00 c0       	push   $0xc00068ec
c0002c9b:	e8 d9 03 00 00       	call   c0003079 <list_append>
c0002ca0:	83 c4 10             	add    $0x10,%esp
c0002ca3:	8b 45 f4             	mov    -0xc(%ebp),%eax
c0002ca6:	c9                   	leave  
c0002ca7:	c3                   	ret    

c0002ca8 <make_main_thread>:
c0002ca8:	55                   	push   %ebp
c0002ca9:	89 e5                	mov    %esp,%ebp
c0002cab:	83 ec 08             	sub    $0x8,%esp
c0002cae:	e8 e1 fd ff ff       	call   c0002a94 <running_thread>
c0002cb3:	a3 d8 68 00 c0       	mov    %eax,0xc00068d8
c0002cb8:	a1 d8 68 00 c0       	mov    0xc00068d8,%eax
c0002cbd:	83 ec 04             	sub    $0x4,%esp
c0002cc0:	6a 1f                	push   $0x1f
c0002cc2:	68 3c 4e 00 c0       	push   $0xc0004e3c
c0002cc7:	50                   	push   %eax
c0002cc8:	e8 6f fe ff ff       	call   c0002b3c <init_thread>
c0002ccd:	83 c4 10             	add    $0x10,%esp
c0002cd0:	a1 d8 68 00 c0       	mov    0xc00068d8,%eax
c0002cd5:	83 c0 28             	add    $0x28,%eax
c0002cd8:	83 ec 08             	sub    $0x8,%esp
c0002cdb:	50                   	push   %eax
c0002cdc:	68 ec 68 00 c0       	push   $0xc00068ec
c0002ce1:	e8 0d 04 00 00       	call   c00030f3 <elem_find>
c0002ce6:	83 c4 10             	add    $0x10,%esp
c0002ce9:	85 c0                	test   %eax,%eax
c0002ceb:	74 19                	je     c0002d06 <make_main_thread+0x5e>
c0002ced:	68 44 4e 00 c0       	push   $0xc0004e44
c0002cf2:	68 4c 50 00 c0       	push   $0xc000504c
c0002cf7:	6a 58                	push   $0x58
c0002cf9:	68 f5 4d 00 c0       	push   $0xc0004df5
c0002cfe:	e8 06 ef ff ff       	call   c0001c09 <panic_spin>
c0002d03:	83 c4 10             	add    $0x10,%esp
c0002d06:	a1 d8 68 00 c0       	mov    0xc00068d8,%eax
c0002d0b:	83 c0 28             	add    $0x28,%eax
c0002d0e:	83 ec 08             	sub    $0x8,%esp
c0002d11:	50                   	push   %eax
c0002d12:	68 ec 68 00 c0       	push   $0xc00068ec
c0002d17:	e8 5d 03 00 00       	call   c0003079 <list_append>
c0002d1c:	83 c4 10             	add    $0x10,%esp
c0002d1f:	90                   	nop
c0002d20:	c9                   	leave  
c0002d21:	c3                   	ret    

c0002d22 <schedule>:
c0002d22:	55                   	push   %ebp
c0002d23:	89 e5                	mov    %esp,%ebp
c0002d25:	83 ec 18             	sub    $0x18,%esp
c0002d28:	e8 c9 ec ff ff       	call   c00019f6 <intr_get_status>
c0002d2d:	85 c0                	test   %eax,%eax
c0002d2f:	74 19                	je     c0002d4a <schedule+0x28>
c0002d31:	68 7d 4e 00 c0       	push   $0xc0004e7d
c0002d36:	68 60 50 00 c0       	push   $0xc0005060
c0002d3b:	6a 5d                	push   $0x5d
c0002d3d:	68 f5 4d 00 c0       	push   $0xc0004df5
c0002d42:	e8 c2 ee ff ff       	call   c0001c09 <panic_spin>
c0002d47:	83 c4 10             	add    $0x10,%esp
c0002d4a:	e8 45 fd ff ff       	call   c0002a94 <running_thread>
c0002d4f:	89 45 f4             	mov    %eax,-0xc(%ebp)
c0002d52:	8b 45 f4             	mov    -0xc(%ebp),%eax
c0002d55:	8b 40 04             	mov    0x4(%eax),%eax
c0002d58:	85 c0                	test   %eax,%eax
c0002d5a:	75 61                	jne    c0002dbd <schedule+0x9b>
c0002d5c:	8b 45 f4             	mov    -0xc(%ebp),%eax
c0002d5f:	83 c0 20             	add    $0x20,%eax
c0002d62:	83 ec 08             	sub    $0x8,%esp
c0002d65:	50                   	push   %eax
c0002d66:	68 dc 68 00 c0       	push   $0xc00068dc
c0002d6b:	e8 83 03 00 00       	call   c00030f3 <elem_find>
c0002d70:	83 c4 10             	add    $0x10,%esp
c0002d73:	85 c0                	test   %eax,%eax
c0002d75:	74 19                	je     c0002d90 <schedule+0x6e>
c0002d77:	68 9c 4e 00 c0       	push   $0xc0004e9c
c0002d7c:	68 60 50 00 c0       	push   $0xc0005060
c0002d81:	6a 61                	push   $0x61
c0002d83:	68 f5 4d 00 c0       	push   $0xc0004df5
c0002d88:	e8 7c ee ff ff       	call   c0001c09 <panic_spin>
c0002d8d:	83 c4 10             	add    $0x10,%esp
c0002d90:	8b 45 f4             	mov    -0xc(%ebp),%eax
c0002d93:	83 c0 20             	add    $0x20,%eax
c0002d96:	83 ec 08             	sub    $0x8,%esp
c0002d99:	50                   	push   %eax
c0002d9a:	68 dc 68 00 c0       	push   $0xc00068dc
c0002d9f:	e8 d5 02 00 00       	call   c0003079 <list_append>
c0002da4:	83 c4 10             	add    $0x10,%esp
c0002da7:	8b 45 f4             	mov    -0xc(%ebp),%eax
c0002daa:	8a 50 18             	mov    0x18(%eax),%dl
c0002dad:	8b 45 f4             	mov    -0xc(%ebp),%eax
c0002db0:	88 50 19             	mov    %dl,0x19(%eax)
c0002db3:	8b 45 f4             	mov    -0xc(%ebp),%eax
c0002db6:	c7 40 04 01 00 00 00 	movl   $0x1,0x4(%eax)
c0002dbd:	83 ec 0c             	sub    $0xc,%esp
c0002dc0:	68 dc 68 00 c0       	push   $0xc00068dc
c0002dc5:	e8 f5 03 00 00       	call   c00031bf <list_empty>
c0002dca:	83 c4 10             	add    $0x10,%esp
c0002dcd:	85 c0                	test   %eax,%eax
c0002dcf:	74 19                	je     c0002dea <schedule+0xc8>
c0002dd1:	68 d0 4e 00 c0       	push   $0xc0004ed0
c0002dd6:	68 60 50 00 c0       	push   $0xc0005060
c0002ddb:	6a 6a                	push   $0x6a
c0002ddd:	68 f5 4d 00 c0       	push   $0xc0004df5
c0002de2:	e8 22 ee ff ff       	call   c0001c09 <panic_spin>
c0002de7:	83 c4 10             	add    $0x10,%esp
c0002dea:	c7 05 fc 68 00 c0 00 	movl   $0x0,0xc00068fc
c0002df1:	00 00 00 
c0002df4:	83 ec 0c             	sub    $0xc,%esp
c0002df7:	68 dc 68 00 c0       	push   $0xc00068dc
c0002dfc:	e8 d0 02 00 00       	call   c00030d1 <list_pop>
c0002e01:	83 c4 10             	add    $0x10,%esp
c0002e04:	a3 fc 68 00 c0       	mov    %eax,0xc00068fc
c0002e09:	a1 fc 68 00 c0       	mov    0xc00068fc,%eax
c0002e0e:	83 e8 20             	sub    $0x20,%eax
c0002e11:	89 45 f0             	mov    %eax,-0x10(%ebp)
c0002e14:	8b 45 f0             	mov    -0x10(%ebp),%eax
c0002e17:	c7 40 04 00 00 00 00 	movl   $0x0,0x4(%eax)
c0002e1e:	83 ec 0c             	sub    $0xc,%esp
c0002e21:	ff 75 f0             	push   -0x10(%ebp)
c0002e24:	e8 89 16 00 00       	call   c00044b2 <process_activate>
c0002e29:	83 c4 10             	add    $0x10,%esp
c0002e2c:	83 ec 08             	sub    $0x8,%esp
c0002e2f:	ff 75 f0             	push   -0x10(%ebp)
c0002e32:	ff 75 f4             	push   -0xc(%ebp)
c0002e35:	e8 a6 13 00 00       	call   c00041e0 <switch_to>
c0002e3a:	83 c4 10             	add    $0x10,%esp
c0002e3d:	90                   	nop
c0002e3e:	c9                   	leave  
c0002e3f:	c3                   	ret    

c0002e40 <thread_block>:
c0002e40:	55                   	push   %ebp
c0002e41:	89 e5                	mov    %esp,%ebp
c0002e43:	83 ec 18             	sub    $0x18,%esp
c0002e46:	83 7d 08 02          	cmpl   $0x2,0x8(%ebp)
c0002e4a:	74 25                	je     c0002e71 <thread_block+0x31>
c0002e4c:	83 7d 08 03          	cmpl   $0x3,0x8(%ebp)
c0002e50:	74 1f                	je     c0002e71 <thread_block+0x31>
c0002e52:	83 7d 08 04          	cmpl   $0x4,0x8(%ebp)
c0002e56:	74 19                	je     c0002e71 <thread_block+0x31>
c0002e58:	68 f0 4e 00 c0       	push   $0xc0004ef0
c0002e5d:	68 6c 50 00 c0       	push   $0xc000506c
c0002e62:	6a 79                	push   $0x79
c0002e64:	68 f5 4d 00 c0       	push   $0xc0004df5
c0002e69:	e8 9b ed ff ff       	call   c0001c09 <panic_spin>
c0002e6e:	83 c4 10             	add    $0x10,%esp
c0002e71:	e8 39 eb ff ff       	call   c00019af <intr_disable>
c0002e76:	89 45 f4             	mov    %eax,-0xc(%ebp)
c0002e79:	e8 16 fc ff ff       	call   c0002a94 <running_thread>
c0002e7e:	89 45 f0             	mov    %eax,-0x10(%ebp)
c0002e81:	8b 45 f0             	mov    -0x10(%ebp),%eax
c0002e84:	8b 55 08             	mov    0x8(%ebp),%edx
c0002e87:	89 50 04             	mov    %edx,0x4(%eax)
c0002e8a:	e8 93 fe ff ff       	call   c0002d22 <schedule>
c0002e8f:	83 ec 0c             	sub    $0xc,%esp
c0002e92:	ff 75 f4             	push   -0xc(%ebp)
c0002e95:	e8 3e eb ff ff       	call   c00019d8 <intr_set_status>
c0002e9a:	83 c4 10             	add    $0x10,%esp
c0002e9d:	90                   	nop
c0002e9e:	c9                   	leave  
c0002e9f:	c3                   	ret    

c0002ea0 <thread_unblock>:
c0002ea0:	55                   	push   %ebp
c0002ea1:	89 e5                	mov    %esp,%ebp
c0002ea3:	83 ec 18             	sub    $0x18,%esp
c0002ea6:	e8 04 eb ff ff       	call   c00019af <intr_disable>
c0002eab:	89 45 f4             	mov    %eax,-0xc(%ebp)
c0002eae:	8b 45 08             	mov    0x8(%ebp),%eax
c0002eb1:	8b 40 04             	mov    0x4(%eax),%eax
c0002eb4:	83 f8 02             	cmp    $0x2,%eax
c0002eb7:	74 32                	je     c0002eeb <thread_unblock+0x4b>
c0002eb9:	8b 45 08             	mov    0x8(%ebp),%eax
c0002ebc:	8b 40 04             	mov    0x4(%eax),%eax
c0002ebf:	83 f8 03             	cmp    $0x3,%eax
c0002ec2:	74 27                	je     c0002eeb <thread_unblock+0x4b>
c0002ec4:	8b 45 08             	mov    0x8(%ebp),%eax
c0002ec7:	8b 40 04             	mov    0x4(%eax),%eax
c0002eca:	83 f8 04             	cmp    $0x4,%eax
c0002ecd:	74 1c                	je     c0002eeb <thread_unblock+0x4b>
c0002ecf:	68 40 4f 00 c0       	push   $0xc0004f40
c0002ed4:	68 7c 50 00 c0       	push   $0xc000507c
c0002ed9:	68 85 00 00 00       	push   $0x85
c0002ede:	68 f5 4d 00 c0       	push   $0xc0004df5
c0002ee3:	e8 21 ed ff ff       	call   c0001c09 <panic_spin>
c0002ee8:	83 c4 10             	add    $0x10,%esp
c0002eeb:	8b 45 08             	mov    0x8(%ebp),%eax
c0002eee:	8b 40 04             	mov    0x4(%eax),%eax
c0002ef1:	83 f8 01             	cmp    $0x1,%eax
c0002ef4:	0f 84 8f 00 00 00    	je     c0002f89 <thread_unblock+0xe9>
c0002efa:	8b 45 08             	mov    0x8(%ebp),%eax
c0002efd:	83 c0 20             	add    $0x20,%eax
c0002f00:	83 ec 08             	sub    $0x8,%esp
c0002f03:	50                   	push   %eax
c0002f04:	68 dc 68 00 c0       	push   $0xc00068dc
c0002f09:	e8 e5 01 00 00       	call   c00030f3 <elem_find>
c0002f0e:	83 c4 10             	add    $0x10,%esp
c0002f11:	85 c0                	test   %eax,%eax
c0002f13:	74 1c                	je     c0002f31 <thread_unblock+0x91>
c0002f15:	68 b0 4f 00 c0       	push   $0xc0004fb0
c0002f1a:	68 7c 50 00 c0       	push   $0xc000507c
c0002f1f:	68 87 00 00 00       	push   $0x87
c0002f24:	68 f5 4d 00 c0       	push   $0xc0004df5
c0002f29:	e8 db ec ff ff       	call   c0001c09 <panic_spin>
c0002f2e:	83 c4 10             	add    $0x10,%esp
c0002f31:	8b 45 08             	mov    0x8(%ebp),%eax
c0002f34:	83 c0 20             	add    $0x20,%eax
c0002f37:	83 ec 08             	sub    $0x8,%esp
c0002f3a:	50                   	push   %eax
c0002f3b:	68 dc 68 00 c0       	push   $0xc00068dc
c0002f40:	e8 ae 01 00 00       	call   c00030f3 <elem_find>
c0002f45:	83 c4 10             	add    $0x10,%esp
c0002f48:	85 c0                	test   %eax,%eax
c0002f4a:	74 1c                	je     c0002f68 <thread_unblock+0xc8>
c0002f4c:	68 e8 4f 00 c0       	push   $0xc0004fe8
c0002f51:	68 7c 50 00 c0       	push   $0xc000507c
c0002f56:	68 89 00 00 00       	push   $0x89
c0002f5b:	68 f5 4d 00 c0       	push   $0xc0004df5
c0002f60:	e8 a4 ec ff ff       	call   c0001c09 <panic_spin>
c0002f65:	83 c4 10             	add    $0x10,%esp
c0002f68:	8b 45 08             	mov    0x8(%ebp),%eax
c0002f6b:	83 c0 20             	add    $0x20,%eax
c0002f6e:	83 ec 08             	sub    $0x8,%esp
c0002f71:	50                   	push   %eax
c0002f72:	68 dc 68 00 c0       	push   $0xc00068dc
c0002f77:	e8 df 00 00 00       	call   c000305b <list_push>
c0002f7c:	83 c4 10             	add    $0x10,%esp
c0002f7f:	8b 45 08             	mov    0x8(%ebp),%eax
c0002f82:	c7 40 04 01 00 00 00 	movl   $0x1,0x4(%eax)
c0002f89:	83 ec 0c             	sub    $0xc,%esp
c0002f8c:	ff 75 f4             	push   -0xc(%ebp)
c0002f8f:	e8 44 ea ff ff       	call   c00019d8 <intr_set_status>
c0002f94:	83 c4 10             	add    $0x10,%esp
c0002f97:	90                   	nop
c0002f98:	c9                   	leave  
c0002f99:	c3                   	ret    

c0002f9a <thread_init>:
c0002f9a:	55                   	push   %ebp
c0002f9b:	89 e5                	mov    %esp,%ebp
c0002f9d:	83 ec 08             	sub    $0x8,%esp
c0002fa0:	83 ec 0c             	sub    $0xc,%esp
c0002fa3:	68 16 50 00 c0       	push   $0xc0005016
c0002fa8:	e8 b3 10 00 00       	call   c0004060 <put_str>
c0002fad:	83 c4 10             	add    $0x10,%esp
c0002fb0:	83 ec 0c             	sub    $0xc,%esp
c0002fb3:	68 dc 68 00 c0       	push   $0xc00068dc
c0002fb8:	e8 2b 00 00 00       	call   c0002fe8 <list_init>
c0002fbd:	83 c4 10             	add    $0x10,%esp
c0002fc0:	83 ec 0c             	sub    $0xc,%esp
c0002fc3:	68 ec 68 00 c0       	push   $0xc00068ec
c0002fc8:	e8 1b 00 00 00       	call   c0002fe8 <list_init>
c0002fcd:	83 c4 10             	add    $0x10,%esp
c0002fd0:	e8 d3 fc ff ff       	call   c0002ca8 <make_main_thread>
c0002fd5:	83 ec 0c             	sub    $0xc,%esp
c0002fd8:	68 29 50 00 c0       	push   $0xc0005029
c0002fdd:	e8 7e 10 00 00       	call   c0004060 <put_str>
c0002fe2:	83 c4 10             	add    $0x10,%esp
c0002fe5:	90                   	nop
c0002fe6:	c9                   	leave  
c0002fe7:	c3                   	ret    

c0002fe8 <list_init>:
c0002fe8:	55                   	push   %ebp
c0002fe9:	89 e5                	mov    %esp,%ebp
c0002feb:	8b 45 08             	mov    0x8(%ebp),%eax
c0002fee:	c7 00 00 00 00 00    	movl   $0x0,(%eax)
c0002ff4:	8b 45 08             	mov    0x8(%ebp),%eax
c0002ff7:	8d 50 08             	lea    0x8(%eax),%edx
c0002ffa:	8b 45 08             	mov    0x8(%ebp),%eax
c0002ffd:	89 50 04             	mov    %edx,0x4(%eax)
c0003000:	8b 55 08             	mov    0x8(%ebp),%edx
c0003003:	8b 45 08             	mov    0x8(%ebp),%eax
c0003006:	89 50 08             	mov    %edx,0x8(%eax)
c0003009:	8b 45 08             	mov    0x8(%ebp),%eax
c000300c:	c7 40 0c 00 00 00 00 	movl   $0x0,0xc(%eax)
c0003013:	90                   	nop
c0003014:	5d                   	pop    %ebp
c0003015:	c3                   	ret    

c0003016 <list_insert_before>:
c0003016:	55                   	push   %ebp
c0003017:	89 e5                	mov    %esp,%ebp
c0003019:	83 ec 18             	sub    $0x18,%esp
c000301c:	e8 8e e9 ff ff       	call   c00019af <intr_disable>
c0003021:	89 45 f4             	mov    %eax,-0xc(%ebp)
c0003024:	8b 45 08             	mov    0x8(%ebp),%eax
c0003027:	8b 00                	mov    (%eax),%eax
c0003029:	8b 55 0c             	mov    0xc(%ebp),%edx
c000302c:	89 50 04             	mov    %edx,0x4(%eax)
c000302f:	8b 45 08             	mov    0x8(%ebp),%eax
c0003032:	8b 10                	mov    (%eax),%edx
c0003034:	8b 45 0c             	mov    0xc(%ebp),%eax
c0003037:	89 10                	mov    %edx,(%eax)
c0003039:	8b 45 0c             	mov    0xc(%ebp),%eax
c000303c:	8b 55 08             	mov    0x8(%ebp),%edx
c000303f:	89 50 04             	mov    %edx,0x4(%eax)
c0003042:	8b 45 08             	mov    0x8(%ebp),%eax
c0003045:	8b 55 0c             	mov    0xc(%ebp),%edx
c0003048:	89 10                	mov    %edx,(%eax)
c000304a:	83 ec 0c             	sub    $0xc,%esp
c000304d:	ff 75 f4             	push   -0xc(%ebp)
c0003050:	e8 83 e9 ff ff       	call   c00019d8 <intr_set_status>
c0003055:	83 c4 10             	add    $0x10,%esp
c0003058:	90                   	nop
c0003059:	c9                   	leave  
c000305a:	c3                   	ret    

c000305b <list_push>:
c000305b:	55                   	push   %ebp
c000305c:	89 e5                	mov    %esp,%ebp
c000305e:	83 ec 08             	sub    $0x8,%esp
c0003061:	8b 45 08             	mov    0x8(%ebp),%eax
c0003064:	8b 40 04             	mov    0x4(%eax),%eax
c0003067:	83 ec 08             	sub    $0x8,%esp
c000306a:	ff 75 0c             	push   0xc(%ebp)
c000306d:	50                   	push   %eax
c000306e:	e8 a3 ff ff ff       	call   c0003016 <list_insert_before>
c0003073:	83 c4 10             	add    $0x10,%esp
c0003076:	90                   	nop
c0003077:	c9                   	leave  
c0003078:	c3                   	ret    

c0003079 <list_append>:
c0003079:	55                   	push   %ebp
c000307a:	89 e5                	mov    %esp,%ebp
c000307c:	83 ec 08             	sub    $0x8,%esp
c000307f:	8b 45 08             	mov    0x8(%ebp),%eax
c0003082:	83 c0 08             	add    $0x8,%eax
c0003085:	83 ec 08             	sub    $0x8,%esp
c0003088:	ff 75 0c             	push   0xc(%ebp)
c000308b:	50                   	push   %eax
c000308c:	e8 85 ff ff ff       	call   c0003016 <list_insert_before>
c0003091:	83 c4 10             	add    $0x10,%esp
c0003094:	90                   	nop
c0003095:	c9                   	leave  
c0003096:	c3                   	ret    

c0003097 <list_remove>:
c0003097:	55                   	push   %ebp
c0003098:	89 e5                	mov    %esp,%ebp
c000309a:	83 ec 18             	sub    $0x18,%esp
c000309d:	e8 0d e9 ff ff       	call   c00019af <intr_disable>
c00030a2:	89 45 f4             	mov    %eax,-0xc(%ebp)
c00030a5:	8b 45 08             	mov    0x8(%ebp),%eax
c00030a8:	8b 00                	mov    (%eax),%eax
c00030aa:	8b 55 08             	mov    0x8(%ebp),%edx
c00030ad:	8b 52 04             	mov    0x4(%edx),%edx
c00030b0:	89 50 04             	mov    %edx,0x4(%eax)
c00030b3:	8b 45 08             	mov    0x8(%ebp),%eax
c00030b6:	8b 40 04             	mov    0x4(%eax),%eax
c00030b9:	8b 55 08             	mov    0x8(%ebp),%edx
c00030bc:	8b 12                	mov    (%edx),%edx
c00030be:	89 10                	mov    %edx,(%eax)
c00030c0:	83 ec 0c             	sub    $0xc,%esp
c00030c3:	ff 75 f4             	push   -0xc(%ebp)
c00030c6:	e8 0d e9 ff ff       	call   c00019d8 <intr_set_status>
c00030cb:	83 c4 10             	add    $0x10,%esp
c00030ce:	90                   	nop
c00030cf:	c9                   	leave  
c00030d0:	c3                   	ret    

c00030d1 <list_pop>:
c00030d1:	55                   	push   %ebp
c00030d2:	89 e5                	mov    %esp,%ebp
c00030d4:	83 ec 18             	sub    $0x18,%esp
c00030d7:	8b 45 08             	mov    0x8(%ebp),%eax
c00030da:	8b 40 04             	mov    0x4(%eax),%eax
c00030dd:	89 45 f4             	mov    %eax,-0xc(%ebp)
c00030e0:	83 ec 0c             	sub    $0xc,%esp
c00030e3:	ff 75 f4             	push   -0xc(%ebp)
c00030e6:	e8 ac ff ff ff       	call   c0003097 <list_remove>
c00030eb:	83 c4 10             	add    $0x10,%esp
c00030ee:	8b 45 f4             	mov    -0xc(%ebp),%eax
c00030f1:	c9                   	leave  
c00030f2:	c3                   	ret    

c00030f3 <elem_find>:
c00030f3:	55                   	push   %ebp
c00030f4:	89 e5                	mov    %esp,%ebp
c00030f6:	83 ec 10             	sub    $0x10,%esp
c00030f9:	8b 45 08             	mov    0x8(%ebp),%eax
c00030fc:	8b 40 04             	mov    0x4(%eax),%eax
c00030ff:	89 45 fc             	mov    %eax,-0x4(%ebp)
c0003102:	eb 18                	jmp    c000311c <elem_find+0x29>
c0003104:	8b 45 fc             	mov    -0x4(%ebp),%eax
c0003107:	3b 45 0c             	cmp    0xc(%ebp),%eax
c000310a:	75 07                	jne    c0003113 <elem_find+0x20>
c000310c:	b8 01 00 00 00       	mov    $0x1,%eax
c0003111:	eb 19                	jmp    c000312c <elem_find+0x39>
c0003113:	8b 45 fc             	mov    -0x4(%ebp),%eax
c0003116:	8b 40 04             	mov    0x4(%eax),%eax
c0003119:	89 45 fc             	mov    %eax,-0x4(%ebp)
c000311c:	8b 45 08             	mov    0x8(%ebp),%eax
c000311f:	83 c0 08             	add    $0x8,%eax
c0003122:	39 45 fc             	cmp    %eax,-0x4(%ebp)
c0003125:	75 dd                	jne    c0003104 <elem_find+0x11>
c0003127:	b8 00 00 00 00       	mov    $0x0,%eax
c000312c:	c9                   	leave  
c000312d:	c3                   	ret    

c000312e <list_traversal>:
c000312e:	55                   	push   %ebp
c000312f:	89 e5                	mov    %esp,%ebp
c0003131:	83 ec 18             	sub    $0x18,%esp
c0003134:	8b 45 08             	mov    0x8(%ebp),%eax
c0003137:	8b 40 04             	mov    0x4(%eax),%eax
c000313a:	89 45 f4             	mov    %eax,-0xc(%ebp)
c000313d:	83 ec 0c             	sub    $0xc,%esp
c0003140:	ff 75 08             	push   0x8(%ebp)
c0003143:	e8 77 00 00 00       	call   c00031bf <list_empty>
c0003148:	83 c4 10             	add    $0x10,%esp
c000314b:	85 c0                	test   %eax,%eax
c000314d:	74 2a                	je     c0003179 <list_traversal+0x4b>
c000314f:	b8 00 00 00 00       	mov    $0x0,%eax
c0003154:	eb 33                	jmp    c0003189 <list_traversal+0x5b>
c0003156:	83 ec 08             	sub    $0x8,%esp
c0003159:	ff 75 10             	push   0x10(%ebp)
c000315c:	ff 75 f4             	push   -0xc(%ebp)
c000315f:	8b 45 0c             	mov    0xc(%ebp),%eax
c0003162:	ff d0                	call   *%eax
c0003164:	83 c4 10             	add    $0x10,%esp
c0003167:	85 c0                	test   %eax,%eax
c0003169:	74 05                	je     c0003170 <list_traversal+0x42>
c000316b:	8b 45 f4             	mov    -0xc(%ebp),%eax
c000316e:	eb 19                	jmp    c0003189 <list_traversal+0x5b>
c0003170:	8b 45 f4             	mov    -0xc(%ebp),%eax
c0003173:	8b 40 04             	mov    0x4(%eax),%eax
c0003176:	89 45 f4             	mov    %eax,-0xc(%ebp)
c0003179:	8b 45 08             	mov    0x8(%ebp),%eax
c000317c:	83 c0 08             	add    $0x8,%eax
c000317f:	39 45 f4             	cmp    %eax,-0xc(%ebp)
c0003182:	75 d2                	jne    c0003156 <list_traversal+0x28>
c0003184:	b8 00 00 00 00       	mov    $0x0,%eax
c0003189:	c9                   	leave  
c000318a:	c3                   	ret    

c000318b <list_len>:
c000318b:	55                   	push   %ebp
c000318c:	89 e5                	mov    %esp,%ebp
c000318e:	83 ec 10             	sub    $0x10,%esp
c0003191:	8b 45 08             	mov    0x8(%ebp),%eax
c0003194:	8b 40 04             	mov    0x4(%eax),%eax
c0003197:	89 45 fc             	mov    %eax,-0x4(%ebp)
c000319a:	c7 45 f8 00 00 00 00 	movl   $0x0,-0x8(%ebp)
c00031a1:	eb 0c                	jmp    c00031af <list_len+0x24>
c00031a3:	ff 45 f8             	incl   -0x8(%ebp)
c00031a6:	8b 45 fc             	mov    -0x4(%ebp),%eax
c00031a9:	8b 40 04             	mov    0x4(%eax),%eax
c00031ac:	89 45 fc             	mov    %eax,-0x4(%ebp)
c00031af:	8b 45 08             	mov    0x8(%ebp),%eax
c00031b2:	83 c0 08             	add    $0x8,%eax
c00031b5:	39 45 fc             	cmp    %eax,-0x4(%ebp)
c00031b8:	75 e9                	jne    c00031a3 <list_len+0x18>
c00031ba:	8b 45 f8             	mov    -0x8(%ebp),%eax
c00031bd:	c9                   	leave  
c00031be:	c3                   	ret    

c00031bf <list_empty>:
c00031bf:	55                   	push   %ebp
c00031c0:	89 e5                	mov    %esp,%ebp
c00031c2:	8b 45 08             	mov    0x8(%ebp),%eax
c00031c5:	8b 40 04             	mov    0x4(%eax),%eax
c00031c8:	8b 55 08             	mov    0x8(%ebp),%edx
c00031cb:	83 c2 08             	add    $0x8,%edx
c00031ce:	39 d0                	cmp    %edx,%eax
c00031d0:	0f 94 c0             	sete   %al
c00031d3:	0f b6 c0             	movzbl %al,%eax
c00031d6:	5d                   	pop    %ebp
c00031d7:	c3                   	ret    

c00031d8 <sema_init>:
c00031d8:	55                   	push   %ebp
c00031d9:	89 e5                	mov    %esp,%ebp
c00031db:	83 ec 18             	sub    $0x18,%esp
c00031de:	8b 45 0c             	mov    0xc(%ebp),%eax
c00031e1:	88 45 f4             	mov    %al,-0xc(%ebp)
c00031e4:	8b 45 08             	mov    0x8(%ebp),%eax
c00031e7:	8a 55 f4             	mov    -0xc(%ebp),%dl
c00031ea:	88 10                	mov    %dl,(%eax)
c00031ec:	8b 45 08             	mov    0x8(%ebp),%eax
c00031ef:	83 c0 04             	add    $0x4,%eax
c00031f2:	83 ec 0c             	sub    $0xc,%esp
c00031f5:	50                   	push   %eax
c00031f6:	e8 ed fd ff ff       	call   c0002fe8 <list_init>
c00031fb:	83 c4 10             	add    $0x10,%esp
c00031fe:	90                   	nop
c00031ff:	c9                   	leave  
c0003200:	c3                   	ret    

c0003201 <lock_init>:
c0003201:	55                   	push   %ebp
c0003202:	89 e5                	mov    %esp,%ebp
c0003204:	83 ec 08             	sub    $0x8,%esp
c0003207:	8b 45 08             	mov    0x8(%ebp),%eax
c000320a:	c7 00 00 00 00 00    	movl   $0x0,(%eax)
c0003210:	8b 45 08             	mov    0x8(%ebp),%eax
c0003213:	c7 40 18 00 00 00 00 	movl   $0x0,0x18(%eax)
c000321a:	8b 45 08             	mov    0x8(%ebp),%eax
c000321d:	83 c0 04             	add    $0x4,%eax
c0003220:	83 ec 08             	sub    $0x8,%esp
c0003223:	6a 01                	push   $0x1
c0003225:	50                   	push   %eax
c0003226:	e8 ad ff ff ff       	call   c00031d8 <sema_init>
c000322b:	83 c4 10             	add    $0x10,%esp
c000322e:	90                   	nop
c000322f:	c9                   	leave  
c0003230:	c3                   	ret    

c0003231 <sema_down>:
c0003231:	55                   	push   %ebp
c0003232:	89 e5                	mov    %esp,%ebp
c0003234:	83 ec 18             	sub    $0x18,%esp
c0003237:	e8 73 e7 ff ff       	call   c00019af <intr_disable>
c000323c:	89 45 f4             	mov    %eax,-0xc(%ebp)
c000323f:	e9 98 00 00 00       	jmp    c00032dc <sema_down+0xab>
c0003244:	e8 4b f8 ff ff       	call   c0002a94 <running_thread>
c0003249:	8d 50 20             	lea    0x20(%eax),%edx
c000324c:	8b 45 08             	mov    0x8(%ebp),%eax
c000324f:	83 c0 04             	add    $0x4,%eax
c0003252:	83 ec 08             	sub    $0x8,%esp
c0003255:	52                   	push   %edx
c0003256:	50                   	push   %eax
c0003257:	e8 97 fe ff ff       	call   c00030f3 <elem_find>
c000325c:	83 c4 10             	add    $0x10,%esp
c000325f:	85 c0                	test   %eax,%eax
c0003261:	74 19                	je     c000327c <sema_down+0x4b>
c0003263:	68 8c 50 00 c0       	push   $0xc000508c
c0003268:	68 90 51 00 c0       	push   $0xc0005190
c000326d:	6a 19                	push   $0x19
c000326f:	68 c8 50 00 c0       	push   $0xc00050c8
c0003274:	e8 90 e9 ff ff       	call   c0001c09 <panic_spin>
c0003279:	83 c4 10             	add    $0x10,%esp
c000327c:	e8 13 f8 ff ff       	call   c0002a94 <running_thread>
c0003281:	8d 50 20             	lea    0x20(%eax),%edx
c0003284:	8b 45 08             	mov    0x8(%ebp),%eax
c0003287:	83 c0 04             	add    $0x4,%eax
c000328a:	83 ec 08             	sub    $0x8,%esp
c000328d:	52                   	push   %edx
c000328e:	50                   	push   %eax
c000328f:	e8 5f fe ff ff       	call   c00030f3 <elem_find>
c0003294:	83 c4 10             	add    $0x10,%esp
c0003297:	85 c0                	test   %eax,%eax
c0003299:	74 19                	je     c00032b4 <sema_down+0x83>
c000329b:	68 d8 50 00 c0       	push   $0xc00050d8
c00032a0:	68 90 51 00 c0       	push   $0xc0005190
c00032a5:	6a 1c                	push   $0x1c
c00032a7:	68 c8 50 00 c0       	push   $0xc00050c8
c00032ac:	e8 58 e9 ff ff       	call   c0001c09 <panic_spin>
c00032b1:	83 c4 10             	add    $0x10,%esp
c00032b4:	e8 db f7 ff ff       	call   c0002a94 <running_thread>
c00032b9:	8d 50 20             	lea    0x20(%eax),%edx
c00032bc:	8b 45 08             	mov    0x8(%ebp),%eax
c00032bf:	83 c0 04             	add    $0x4,%eax
c00032c2:	83 ec 08             	sub    $0x8,%esp
c00032c5:	52                   	push   %edx
c00032c6:	50                   	push   %eax
c00032c7:	e8 ad fd ff ff       	call   c0003079 <list_append>
c00032cc:	83 c4 10             	add    $0x10,%esp
c00032cf:	83 ec 0c             	sub    $0xc,%esp
c00032d2:	6a 02                	push   $0x2
c00032d4:	e8 67 fb ff ff       	call   c0002e40 <thread_block>
c00032d9:	83 c4 10             	add    $0x10,%esp
c00032dc:	8b 45 08             	mov    0x8(%ebp),%eax
c00032df:	8a 00                	mov    (%eax),%al
c00032e1:	84 c0                	test   %al,%al
c00032e3:	0f 84 5b ff ff ff    	je     c0003244 <sema_down+0x13>
c00032e9:	8b 45 08             	mov    0x8(%ebp),%eax
c00032ec:	8a 00                	mov    (%eax),%al
c00032ee:	8d 50 ff             	lea    -0x1(%eax),%edx
c00032f1:	8b 45 08             	mov    0x8(%ebp),%eax
c00032f4:	88 10                	mov    %dl,(%eax)
c00032f6:	8b 45 08             	mov    0x8(%ebp),%eax
c00032f9:	8a 00                	mov    (%eax),%al
c00032fb:	84 c0                	test   %al,%al
c00032fd:	74 19                	je     c0003318 <sema_down+0xe7>
c00032ff:	68 0c 51 00 c0       	push   $0xc000510c
c0003304:	68 90 51 00 c0       	push   $0xc0005190
c0003309:	6a 24                	push   $0x24
c000330b:	68 c8 50 00 c0       	push   $0xc00050c8
c0003310:	e8 f4 e8 ff ff       	call   c0001c09 <panic_spin>
c0003315:	83 c4 10             	add    $0x10,%esp
c0003318:	83 ec 0c             	sub    $0xc,%esp
c000331b:	ff 75 f4             	push   -0xc(%ebp)
c000331e:	e8 b5 e6 ff ff       	call   c00019d8 <intr_set_status>
c0003323:	83 c4 10             	add    $0x10,%esp
c0003326:	90                   	nop
c0003327:	c9                   	leave  
c0003328:	c3                   	ret    

c0003329 <sema_up>:
c0003329:	55                   	push   %ebp
c000332a:	89 e5                	mov    %esp,%ebp
c000332c:	83 ec 18             	sub    $0x18,%esp
c000332f:	e8 7b e6 ff ff       	call   c00019af <intr_disable>
c0003334:	89 45 f4             	mov    %eax,-0xc(%ebp)
c0003337:	8b 45 08             	mov    0x8(%ebp),%eax
c000333a:	8a 00                	mov    (%eax),%al
c000333c:	84 c0                	test   %al,%al
c000333e:	74 19                	je     c0003359 <sema_up+0x30>
c0003340:	68 0c 51 00 c0       	push   $0xc000510c
c0003345:	68 9c 51 00 c0       	push   $0xc000519c
c000334a:	6a 2d                	push   $0x2d
c000334c:	68 c8 50 00 c0       	push   $0xc00050c8
c0003351:	e8 b3 e8 ff ff       	call   c0001c09 <panic_spin>
c0003356:	83 c4 10             	add    $0x10,%esp
c0003359:	8b 45 08             	mov    0x8(%ebp),%eax
c000335c:	83 c0 04             	add    $0x4,%eax
c000335f:	83 ec 0c             	sub    $0xc,%esp
c0003362:	50                   	push   %eax
c0003363:	e8 57 fe ff ff       	call   c00031bf <list_empty>
c0003368:	83 c4 10             	add    $0x10,%esp
c000336b:	85 c0                	test   %eax,%eax
c000336d:	75 26                	jne    c0003395 <sema_up+0x6c>
c000336f:	8b 45 08             	mov    0x8(%ebp),%eax
c0003372:	83 c0 04             	add    $0x4,%eax
c0003375:	83 ec 0c             	sub    $0xc,%esp
c0003378:	50                   	push   %eax
c0003379:	e8 53 fd ff ff       	call   c00030d1 <list_pop>
c000337e:	83 c4 10             	add    $0x10,%esp
c0003381:	83 e8 20             	sub    $0x20,%eax
c0003384:	89 45 f0             	mov    %eax,-0x10(%ebp)
c0003387:	83 ec 0c             	sub    $0xc,%esp
c000338a:	ff 75 f0             	push   -0x10(%ebp)
c000338d:	e8 0e fb ff ff       	call   c0002ea0 <thread_unblock>
c0003392:	83 c4 10             	add    $0x10,%esp
c0003395:	8b 45 08             	mov    0x8(%ebp),%eax
c0003398:	8a 00                	mov    (%eax),%al
c000339a:	8d 50 01             	lea    0x1(%eax),%edx
c000339d:	8b 45 08             	mov    0x8(%ebp),%eax
c00033a0:	88 10                	mov    %dl,(%eax)
c00033a2:	8b 45 08             	mov    0x8(%ebp),%eax
c00033a5:	8a 00                	mov    (%eax),%al
c00033a7:	3c 01                	cmp    $0x1,%al
c00033a9:	74 19                	je     c00033c4 <sema_up+0x9b>
c00033ab:	68 1e 51 00 c0       	push   $0xc000511e
c00033b0:	68 9c 51 00 c0       	push   $0xc000519c
c00033b5:	6a 33                	push   $0x33
c00033b7:	68 c8 50 00 c0       	push   $0xc00050c8
c00033bc:	e8 48 e8 ff ff       	call   c0001c09 <panic_spin>
c00033c1:	83 c4 10             	add    $0x10,%esp
c00033c4:	83 ec 0c             	sub    $0xc,%esp
c00033c7:	ff 75 f4             	push   -0xc(%ebp)
c00033ca:	e8 09 e6 ff ff       	call   c00019d8 <intr_set_status>
c00033cf:	83 c4 10             	add    $0x10,%esp
c00033d2:	90                   	nop
c00033d3:	c9                   	leave  
c00033d4:	c3                   	ret    

c00033d5 <lock_acquire>:
c00033d5:	55                   	push   %ebp
c00033d6:	89 e5                	mov    %esp,%ebp
c00033d8:	53                   	push   %ebx
c00033d9:	83 ec 04             	sub    $0x4,%esp
c00033dc:	8b 45 08             	mov    0x8(%ebp),%eax
c00033df:	8b 18                	mov    (%eax),%ebx
c00033e1:	e8 ae f6 ff ff       	call   c0002a94 <running_thread>
c00033e6:	39 c3                	cmp    %eax,%ebx
c00033e8:	74 4b                	je     c0003435 <lock_acquire+0x60>
c00033ea:	8b 45 08             	mov    0x8(%ebp),%eax
c00033ed:	83 c0 04             	add    $0x4,%eax
c00033f0:	83 ec 0c             	sub    $0xc,%esp
c00033f3:	50                   	push   %eax
c00033f4:	e8 38 fe ff ff       	call   c0003231 <sema_down>
c00033f9:	83 c4 10             	add    $0x10,%esp
c00033fc:	e8 93 f6 ff ff       	call   c0002a94 <running_thread>
c0003401:	8b 55 08             	mov    0x8(%ebp),%edx
c0003404:	89 02                	mov    %eax,(%edx)
c0003406:	8b 45 08             	mov    0x8(%ebp),%eax
c0003409:	8b 40 18             	mov    0x18(%eax),%eax
c000340c:	85 c0                	test   %eax,%eax
c000340e:	74 19                	je     c0003429 <lock_acquire+0x54>
c0003410:	68 30 51 00 c0       	push   $0xc0005130
c0003415:	68 a4 51 00 c0       	push   $0xc00051a4
c000341a:	6a 3e                	push   $0x3e
c000341c:	68 c8 50 00 c0       	push   $0xc00050c8
c0003421:	e8 e3 e7 ff ff       	call   c0001c09 <panic_spin>
c0003426:	83 c4 10             	add    $0x10,%esp
c0003429:	8b 45 08             	mov    0x8(%ebp),%eax
c000342c:	c7 40 18 01 00 00 00 	movl   $0x1,0x18(%eax)
c0003433:	eb 0f                	jmp    c0003444 <lock_acquire+0x6f>
c0003435:	8b 45 08             	mov    0x8(%ebp),%eax
c0003438:	8b 40 18             	mov    0x18(%eax),%eax
c000343b:	8d 50 01             	lea    0x1(%eax),%edx
c000343e:	8b 45 08             	mov    0x8(%ebp),%eax
c0003441:	89 50 18             	mov    %edx,0x18(%eax)
c0003444:	90                   	nop
c0003445:	8b 5d fc             	mov    -0x4(%ebp),%ebx
c0003448:	c9                   	leave  
c0003449:	c3                   	ret    

c000344a <lock_release>:
c000344a:	55                   	push   %ebp
c000344b:	89 e5                	mov    %esp,%ebp
c000344d:	53                   	push   %ebx
c000344e:	83 ec 04             	sub    $0x4,%esp
c0003451:	8b 45 08             	mov    0x8(%ebp),%eax
c0003454:	8b 18                	mov    (%eax),%ebx
c0003456:	e8 39 f6 ff ff       	call   c0002a94 <running_thread>
c000345b:	39 c3                	cmp    %eax,%ebx
c000345d:	74 19                	je     c0003478 <lock_release+0x2e>
c000345f:	68 50 51 00 c0       	push   $0xc0005150
c0003464:	68 b4 51 00 c0       	push   $0xc00051b4
c0003469:	6a 47                	push   $0x47
c000346b:	68 c8 50 00 c0       	push   $0xc00050c8
c0003470:	e8 94 e7 ff ff       	call   c0001c09 <panic_spin>
c0003475:	83 c4 10             	add    $0x10,%esp
c0003478:	8b 45 08             	mov    0x8(%ebp),%eax
c000347b:	8b 40 18             	mov    0x18(%eax),%eax
c000347e:	83 f8 01             	cmp    $0x1,%eax
c0003481:	76 11                	jbe    c0003494 <lock_release+0x4a>
c0003483:	8b 45 08             	mov    0x8(%ebp),%eax
c0003486:	8b 40 18             	mov    0x18(%eax),%eax
c0003489:	8d 50 ff             	lea    -0x1(%eax),%edx
c000348c:	8b 45 08             	mov    0x8(%ebp),%eax
c000348f:	89 50 18             	mov    %edx,0x18(%eax)
c0003492:	eb 49                	jmp    c00034dd <lock_release+0x93>
c0003494:	8b 45 08             	mov    0x8(%ebp),%eax
c0003497:	8b 40 18             	mov    0x18(%eax),%eax
c000349a:	83 f8 01             	cmp    $0x1,%eax
c000349d:	74 19                	je     c00034b8 <lock_release+0x6e>
c000349f:	68 72 51 00 c0       	push   $0xc0005172
c00034a4:	68 b4 51 00 c0       	push   $0xc00051b4
c00034a9:	6a 4c                	push   $0x4c
c00034ab:	68 c8 50 00 c0       	push   $0xc00050c8
c00034b0:	e8 54 e7 ff ff       	call   c0001c09 <panic_spin>
c00034b5:	83 c4 10             	add    $0x10,%esp
c00034b8:	8b 45 08             	mov    0x8(%ebp),%eax
c00034bb:	c7 00 00 00 00 00    	movl   $0x0,(%eax)
c00034c1:	8b 45 08             	mov    0x8(%ebp),%eax
c00034c4:	c7 40 18 00 00 00 00 	movl   $0x0,0x18(%eax)
c00034cb:	8b 45 08             	mov    0x8(%ebp),%eax
c00034ce:	83 c0 04             	add    $0x4,%eax
c00034d1:	83 ec 0c             	sub    $0xc,%esp
c00034d4:	50                   	push   %eax
c00034d5:	e8 4f fe ff ff       	call   c0003329 <sema_up>
c00034da:	83 c4 10             	add    $0x10,%esp
c00034dd:	8b 5d fc             	mov    -0x4(%ebp),%ebx
c00034e0:	c9                   	leave  
c00034e1:	c3                   	ret    

c00034e2 <console_init>:
c00034e2:	55                   	push   %ebp
c00034e3:	89 e5                	mov    %esp,%ebp
c00034e5:	83 ec 08             	sub    $0x8,%esp
c00034e8:	83 ec 0c             	sub    $0xc,%esp
c00034eb:	68 00 69 00 c0       	push   $0xc0006900
c00034f0:	e8 0c fd ff ff       	call   c0003201 <lock_init>
c00034f5:	83 c4 10             	add    $0x10,%esp
c00034f8:	90                   	nop
c00034f9:	c9                   	leave  
c00034fa:	c3                   	ret    

c00034fb <console_acquire>:
c00034fb:	55                   	push   %ebp
c00034fc:	89 e5                	mov    %esp,%ebp
c00034fe:	83 ec 08             	sub    $0x8,%esp
c0003501:	83 ec 0c             	sub    $0xc,%esp
c0003504:	68 00 69 00 c0       	push   $0xc0006900
c0003509:	e8 c7 fe ff ff       	call   c00033d5 <lock_acquire>
c000350e:	83 c4 10             	add    $0x10,%esp
c0003511:	90                   	nop
c0003512:	c9                   	leave  
c0003513:	c3                   	ret    

c0003514 <console_release>:
c0003514:	55                   	push   %ebp
c0003515:	89 e5                	mov    %esp,%ebp
c0003517:	83 ec 08             	sub    $0x8,%esp
c000351a:	83 ec 0c             	sub    $0xc,%esp
c000351d:	68 00 69 00 c0       	push   $0xc0006900
c0003522:	e8 23 ff ff ff       	call   c000344a <lock_release>
c0003527:	83 c4 10             	add    $0x10,%esp
c000352a:	90                   	nop
c000352b:	c9                   	leave  
c000352c:	c3                   	ret    

c000352d <console_put_str>:
c000352d:	55                   	push   %ebp
c000352e:	89 e5                	mov    %esp,%ebp
c0003530:	83 ec 08             	sub    $0x8,%esp
c0003533:	e8 c3 ff ff ff       	call   c00034fb <console_acquire>
c0003538:	83 ec 0c             	sub    $0xc,%esp
c000353b:	ff 75 08             	push   0x8(%ebp)
c000353e:	e8 1d 0b 00 00       	call   c0004060 <put_str>
c0003543:	83 c4 10             	add    $0x10,%esp
c0003546:	e8 c9 ff ff ff       	call   c0003514 <console_release>
c000354b:	90                   	nop
c000354c:	c9                   	leave  
c000354d:	c3                   	ret    

c000354e <console_put_char>:
c000354e:	55                   	push   %ebp
c000354f:	89 e5                	mov    %esp,%ebp
c0003551:	83 ec 18             	sub    $0x18,%esp
c0003554:	8b 45 08             	mov    0x8(%ebp),%eax
c0003557:	88 45 f4             	mov    %al,-0xc(%ebp)
c000355a:	e8 9c ff ff ff       	call   c00034fb <console_acquire>
c000355f:	0f b6 45 f4          	movzbl -0xc(%ebp),%eax
c0003563:	83 ec 0c             	sub    $0xc,%esp
c0003566:	50                   	push   %eax
c0003567:	e8 12 0b 00 00       	call   c000407e <put_char>
c000356c:	83 c4 10             	add    $0x10,%esp
c000356f:	e8 a0 ff ff ff       	call   c0003514 <console_release>
c0003574:	90                   	nop
c0003575:	c9                   	leave  
c0003576:	c3                   	ret    

c0003577 <console_put_int>:
c0003577:	55                   	push   %ebp
c0003578:	89 e5                	mov    %esp,%ebp
c000357a:	83 ec 08             	sub    $0x8,%esp
c000357d:	e8 79 ff ff ff       	call   c00034fb <console_acquire>
c0003582:	83 ec 0c             	sub    $0xc,%esp
c0003585:	ff 75 08             	push   0x8(%ebp)
c0003588:	e8 be 0b 00 00       	call   c000414b <put_int>
c000358d:	83 c4 10             	add    $0x10,%esp
c0003590:	e8 7f ff ff ff       	call   c0003514 <console_release>
c0003595:	90                   	nop
c0003596:	c9                   	leave  
c0003597:	c3                   	ret    

c0003598 <inb>:
c0003598:	55                   	push   %ebp
c0003599:	89 e5                	mov    %esp,%ebp
c000359b:	83 ec 14             	sub    $0x14,%esp
c000359e:	8b 45 08             	mov    0x8(%ebp),%eax
c00035a1:	66 89 45 ec          	mov    %ax,-0x14(%ebp)
c00035a5:	8b 45 ec             	mov    -0x14(%ebp),%eax
c00035a8:	89 c2                	mov    %eax,%edx
c00035aa:	ec                   	in     (%dx),%al
c00035ab:	88 45 ff             	mov    %al,-0x1(%ebp)
c00035ae:	8a 45 ff             	mov    -0x1(%ebp),%al
c00035b1:	c9                   	leave  
c00035b2:	c3                   	ret    

c00035b3 <intr_keyboard_handler>:
c00035b3:	55                   	push   %ebp
c00035b4:	89 e5                	mov    %esp,%ebp
c00035b6:	83 ec 28             	sub    $0x28,%esp
c00035b9:	a1 20 69 00 c0       	mov    0xc0006920,%eax
c00035be:	89 45 ec             	mov    %eax,-0x14(%ebp)
c00035c1:	a1 28 69 00 c0       	mov    0xc0006928,%eax
c00035c6:	89 45 e8             	mov    %eax,-0x18(%ebp)
c00035c9:	6a 60                	push   $0x60
c00035cb:	e8 c8 ff ff ff       	call   c0003598 <inb>
c00035d0:	83 c4 04             	add    $0x4,%esp
c00035d3:	0f b6 c0             	movzbl %al,%eax
c00035d6:	66 89 45 f6          	mov    %ax,-0xa(%ebp)
c00035da:	66 81 7d f6 e0 00    	cmpw   $0xe0,-0xa(%ebp)
c00035e0:	75 0f                	jne    c00035f1 <intr_keyboard_handler+0x3e>
c00035e2:	c7 05 2c 69 00 c0 01 	movl   $0x1,0xc000692c
c00035e9:	00 00 00 
c00035ec:	e9 0f 02 00 00       	jmp    c0003800 <intr_keyboard_handler+0x24d>
c00035f1:	a1 2c 69 00 c0       	mov    0xc000692c,%eax
c00035f6:	85 c0                	test   %eax,%eax
c00035f8:	74 10                	je     c000360a <intr_keyboard_handler+0x57>
c00035fa:	66 81 4d f6 00 e0    	orw    $0xe000,-0xa(%ebp)
c0003600:	c7 05 2c 69 00 c0 00 	movl   $0x0,0xc000692c
c0003607:	00 00 00 
c000360a:	0f b7 45 f6          	movzwl -0xa(%ebp),%eax
c000360e:	25 80 00 00 00       	and    $0x80,%eax
c0003613:	85 c0                	test   %eax,%eax
c0003615:	0f 95 c0             	setne  %al
c0003618:	0f b6 c0             	movzbl %al,%eax
c000361b:	89 45 e4             	mov    %eax,-0x1c(%ebp)
c000361e:	83 7d e4 00          	cmpl   $0x0,-0x1c(%ebp)
c0003622:	74 6a                	je     c000368e <intr_keyboard_handler+0xdb>
c0003624:	66 81 65 f6 7f ff    	andw   $0xff7f,-0xa(%ebp)
c000362a:	66 8b 45 f6          	mov    -0xa(%ebp),%ax
c000362e:	66 89 45 e0          	mov    %ax,-0x20(%ebp)
c0003632:	66 83 7d e0 1d       	cmpw   $0x1d,-0x20(%ebp)
c0003637:	74 08                	je     c0003641 <intr_keyboard_handler+0x8e>
c0003639:	66 81 7d e0 1d e0    	cmpw   $0xe01d,-0x20(%ebp)
c000363f:	75 0c                	jne    c000364d <intr_keyboard_handler+0x9a>
c0003641:	c7 05 1c 69 00 c0 00 	movl   $0x0,0xc000691c
c0003648:	00 00 00 
c000364b:	eb 3c                	jmp    c0003689 <intr_keyboard_handler+0xd6>
c000364d:	66 83 7d e0 2a       	cmpw   $0x2a,-0x20(%ebp)
c0003652:	74 07                	je     c000365b <intr_keyboard_handler+0xa8>
c0003654:	66 83 7d e0 36       	cmpw   $0x36,-0x20(%ebp)
c0003659:	75 0c                	jne    c0003667 <intr_keyboard_handler+0xb4>
c000365b:	c7 05 20 69 00 c0 00 	movl   $0x0,0xc0006920
c0003662:	00 00 00 
c0003665:	eb 22                	jmp    c0003689 <intr_keyboard_handler+0xd6>
c0003667:	66 83 7d e0 38       	cmpw   $0x38,-0x20(%ebp)
c000366c:	74 0c                	je     c000367a <intr_keyboard_handler+0xc7>
c000366e:	66 81 7d e0 38 e0    	cmpw   $0xe038,-0x20(%ebp)
c0003674:	0f 85 82 01 00 00    	jne    c00037fc <intr_keyboard_handler+0x249>
c000367a:	c7 05 24 69 00 c0 00 	movl   $0x0,0xc0006924
c0003681:	00 00 00 
c0003684:	e9 73 01 00 00       	jmp    c00037fc <intr_keyboard_handler+0x249>
c0003689:	e9 6e 01 00 00       	jmp    c00037fc <intr_keyboard_handler+0x249>
c000368e:	66 83 7d f6 00       	cmpw   $0x0,-0xa(%ebp)
c0003693:	74 07                	je     c000369c <intr_keyboard_handler+0xe9>
c0003695:	66 83 7d f6 3a       	cmpw   $0x3a,-0xa(%ebp)
c000369a:	76 14                	jbe    c00036b0 <intr_keyboard_handler+0xfd>
c000369c:	66 81 7d f6 38 e0    	cmpw   $0xe038,-0xa(%ebp)
c00036a2:	74 0c                	je     c00036b0 <intr_keyboard_handler+0xfd>
c00036a4:	66 81 7d f6 1d e0    	cmpw   $0xe01d,-0xa(%ebp)
c00036aa:	0f 85 3a 01 00 00    	jne    c00037ea <intr_keyboard_handler+0x237>
c00036b0:	c7 45 f0 00 00 00 00 	movl   $0x0,-0x10(%ebp)
c00036b7:	66 83 7d f6 0d       	cmpw   $0xd,-0xa(%ebp)
c00036bc:	76 3f                	jbe    c00036fd <intr_keyboard_handler+0x14a>
c00036be:	66 83 7d f6 29       	cmpw   $0x29,-0xa(%ebp)
c00036c3:	74 38                	je     c00036fd <intr_keyboard_handler+0x14a>
c00036c5:	66 83 7d f6 1a       	cmpw   $0x1a,-0xa(%ebp)
c00036ca:	74 31                	je     c00036fd <intr_keyboard_handler+0x14a>
c00036cc:	66 83 7d f6 1b       	cmpw   $0x1b,-0xa(%ebp)
c00036d1:	74 2a                	je     c00036fd <intr_keyboard_handler+0x14a>
c00036d3:	66 83 7d f6 2b       	cmpw   $0x2b,-0xa(%ebp)
c00036d8:	74 23                	je     c00036fd <intr_keyboard_handler+0x14a>
c00036da:	66 83 7d f6 27       	cmpw   $0x27,-0xa(%ebp)
c00036df:	74 1c                	je     c00036fd <intr_keyboard_handler+0x14a>
c00036e1:	66 83 7d f6 28       	cmpw   $0x28,-0xa(%ebp)
c00036e6:	74 15                	je     c00036fd <intr_keyboard_handler+0x14a>
c00036e8:	66 83 7d f6 33       	cmpw   $0x33,-0xa(%ebp)
c00036ed:	74 0e                	je     c00036fd <intr_keyboard_handler+0x14a>
c00036ef:	66 83 7d f6 34       	cmpw   $0x34,-0xa(%ebp)
c00036f4:	74 07                	je     c00036fd <intr_keyboard_handler+0x14a>
c00036f6:	66 83 7d f6 35       	cmpw   $0x35,-0xa(%ebp)
c00036fb:	75 0f                	jne    c000370c <intr_keyboard_handler+0x159>
c00036fd:	83 7d ec 00          	cmpl   $0x0,-0x14(%ebp)
c0003701:	74 3a                	je     c000373d <intr_keyboard_handler+0x18a>
c0003703:	c7 45 f0 01 00 00 00 	movl   $0x1,-0x10(%ebp)
c000370a:	eb 31                	jmp    c000373d <intr_keyboard_handler+0x18a>
c000370c:	83 7d ec 00          	cmpl   $0x0,-0x14(%ebp)
c0003710:	74 0f                	je     c0003721 <intr_keyboard_handler+0x16e>
c0003712:	83 7d e8 00          	cmpl   $0x0,-0x18(%ebp)
c0003716:	74 09                	je     c0003721 <intr_keyboard_handler+0x16e>
c0003718:	c7 45 f0 00 00 00 00 	movl   $0x0,-0x10(%ebp)
c000371f:	eb 1c                	jmp    c000373d <intr_keyboard_handler+0x18a>
c0003721:	83 7d ec 00          	cmpl   $0x0,-0x14(%ebp)
c0003725:	75 06                	jne    c000372d <intr_keyboard_handler+0x17a>
c0003727:	83 7d e8 00          	cmpl   $0x0,-0x18(%ebp)
c000372b:	74 09                	je     c0003736 <intr_keyboard_handler+0x183>
c000372d:	c7 45 f0 01 00 00 00 	movl   $0x1,-0x10(%ebp)
c0003734:	eb 07                	jmp    c000373d <intr_keyboard_handler+0x18a>
c0003736:	c7 45 f0 00 00 00 00 	movl   $0x0,-0x10(%ebp)
c000373d:	66 81 65 f6 ff 00    	andw   $0xff,-0xa(%ebp)
c0003743:	66 8b 45 f6          	mov    -0xa(%ebp),%ax
c0003747:	88 45 e3             	mov    %al,-0x1d(%ebp)
c000374a:	0f b6 45 e3          	movzbl -0x1d(%ebp),%eax
c000374e:	8d 14 00             	lea    (%eax,%eax,1),%edx
c0003751:	8b 45 f0             	mov    -0x10(%ebp),%eax
c0003754:	01 d0                	add    %edx,%eax
c0003756:	05 c0 63 00 c0       	add    $0xc00063c0,%eax
c000375b:	8a 00                	mov    (%eax),%al
c000375d:	88 45 e2             	mov    %al,-0x1e(%ebp)
c0003760:	80 7d e2 00          	cmpb   $0x0,-0x1e(%ebp)
c0003764:	74 17                	je     c000377d <intr_keyboard_handler+0x1ca>
c0003766:	8a 45 e2             	mov    -0x1e(%ebp),%al
c0003769:	0f b6 c0             	movzbl %al,%eax
c000376c:	83 ec 0c             	sub    $0xc,%esp
c000376f:	50                   	push   %eax
c0003770:	e8 09 09 00 00       	call   c000407e <put_char>
c0003775:	83 c4 10             	add    $0x10,%esp
c0003778:	e9 83 00 00 00       	jmp    c0003800 <intr_keyboard_handler+0x24d>
c000377d:	66 83 7d f6 1d       	cmpw   $0x1d,-0xa(%ebp)
c0003782:	74 08                	je     c000378c <intr_keyboard_handler+0x1d9>
c0003784:	66 81 7d f6 1d e0    	cmpw   $0xe01d,-0xa(%ebp)
c000378a:	75 0c                	jne    c0003798 <intr_keyboard_handler+0x1e5>
c000378c:	c7 05 1c 69 00 c0 01 	movl   $0x1,0xc000691c
c0003793:	00 00 00 
c0003796:	eb 50                	jmp    c00037e8 <intr_keyboard_handler+0x235>
c0003798:	66 83 7d f6 2a       	cmpw   $0x2a,-0xa(%ebp)
c000379d:	74 07                	je     c00037a6 <intr_keyboard_handler+0x1f3>
c000379f:	66 83 7d f6 36       	cmpw   $0x36,-0xa(%ebp)
c00037a4:	75 0c                	jne    c00037b2 <intr_keyboard_handler+0x1ff>
c00037a6:	c7 05 20 69 00 c0 01 	movl   $0x1,0xc0006920
c00037ad:	00 00 00 
c00037b0:	eb 36                	jmp    c00037e8 <intr_keyboard_handler+0x235>
c00037b2:	66 83 7d f6 38       	cmpw   $0x38,-0xa(%ebp)
c00037b7:	74 08                	je     c00037c1 <intr_keyboard_handler+0x20e>
c00037b9:	66 81 7d f6 38 e0    	cmpw   $0xe038,-0xa(%ebp)
c00037bf:	75 0c                	jne    c00037cd <intr_keyboard_handler+0x21a>
c00037c1:	c7 05 24 69 00 c0 01 	movl   $0x1,0xc0006924
c00037c8:	00 00 00 
c00037cb:	eb 1b                	jmp    c00037e8 <intr_keyboard_handler+0x235>
c00037cd:	66 83 7d f6 3a       	cmpw   $0x3a,-0xa(%ebp)
c00037d2:	75 2b                	jne    c00037ff <intr_keyboard_handler+0x24c>
c00037d4:	a1 28 69 00 c0       	mov    0xc0006928,%eax
c00037d9:	85 c0                	test   %eax,%eax
c00037db:	0f 94 c0             	sete   %al
c00037de:	0f b6 c0             	movzbl %al,%eax
c00037e1:	a3 28 69 00 c0       	mov    %eax,0xc0006928
c00037e6:	eb 17                	jmp    c00037ff <intr_keyboard_handler+0x24c>
c00037e8:	eb 15                	jmp    c00037ff <intr_keyboard_handler+0x24c>
c00037ea:	83 ec 0c             	sub    $0xc,%esp
c00037ed:	68 c1 51 00 c0       	push   $0xc00051c1
c00037f2:	e8 69 08 00 00       	call   c0004060 <put_str>
c00037f7:	83 c4 10             	add    $0x10,%esp
c00037fa:	eb 04                	jmp    c0003800 <intr_keyboard_handler+0x24d>
c00037fc:	90                   	nop
c00037fd:	eb 01                	jmp    c0003800 <intr_keyboard_handler+0x24d>
c00037ff:	90                   	nop
c0003800:	c9                   	leave  
c0003801:	c3                   	ret    

c0003802 <keyboard_init>:
c0003802:	55                   	push   %ebp
c0003803:	89 e5                	mov    %esp,%ebp
c0003805:	83 ec 08             	sub    $0x8,%esp
c0003808:	83 ec 0c             	sub    $0xc,%esp
c000380b:	68 ce 51 00 c0       	push   $0xc00051ce
c0003810:	e8 4b 08 00 00       	call   c0004060 <put_str>
c0003815:	83 c4 10             	add    $0x10,%esp
c0003818:	83 ec 08             	sub    $0x8,%esp
c000381b:	68 b3 35 00 c0       	push   $0xc00035b3
c0003820:	6a 21                	push   $0x21
c0003822:	e8 ec e1 ff ff       	call   c0001a13 <register_handler>
c0003827:	83 c4 10             	add    $0x10,%esp
c000382a:	83 ec 0c             	sub    $0xc,%esp
c000382d:	68 e3 51 00 c0       	push   $0xc00051e3
c0003832:	e8 29 08 00 00       	call   c0004060 <put_str>
c0003837:	83 c4 10             	add    $0x10,%esp
c000383a:	90                   	nop
c000383b:	c9                   	leave  
c000383c:	c3                   	ret    

c000383d <ioqueue_init>:
c000383d:	55                   	push   %ebp
c000383e:	89 e5                	mov    %esp,%ebp
c0003840:	83 ec 08             	sub    $0x8,%esp
c0003843:	8b 45 08             	mov    0x8(%ebp),%eax
c0003846:	83 ec 0c             	sub    $0xc,%esp
c0003849:	50                   	push   %eax
c000384a:	e8 b2 f9 ff ff       	call   c0003201 <lock_init>
c000384f:	83 c4 10             	add    $0x10,%esp
c0003852:	8b 45 08             	mov    0x8(%ebp),%eax
c0003855:	c7 40 20 00 00 00 00 	movl   $0x0,0x20(%eax)
c000385c:	8b 45 08             	mov    0x8(%ebp),%eax
c000385f:	8b 50 20             	mov    0x20(%eax),%edx
c0003862:	8b 45 08             	mov    0x8(%ebp),%eax
c0003865:	89 50 1c             	mov    %edx,0x1c(%eax)
c0003868:	8b 45 08             	mov    0x8(%ebp),%eax
c000386b:	c7 40 68 00 00 00 00 	movl   $0x0,0x68(%eax)
c0003872:	8b 45 08             	mov    0x8(%ebp),%eax
c0003875:	8b 50 68             	mov    0x68(%eax),%edx
c0003878:	8b 45 08             	mov    0x8(%ebp),%eax
c000387b:	89 50 64             	mov    %edx,0x64(%eax)
c000387e:	90                   	nop
c000387f:	c9                   	leave  
c0003880:	c3                   	ret    

c0003881 <next_pos>:
c0003881:	55                   	push   %ebp
c0003882:	89 e5                	mov    %esp,%ebp
c0003884:	8b 45 08             	mov    0x8(%ebp),%eax
c0003887:	40                   	inc    %eax
c0003888:	25 3f 00 00 80       	and    $0x8000003f,%eax
c000388d:	85 c0                	test   %eax,%eax
c000388f:	79 05                	jns    c0003896 <next_pos+0x15>
c0003891:	48                   	dec    %eax
c0003892:	83 c8 c0             	or     $0xffffffc0,%eax
c0003895:	40                   	inc    %eax
c0003896:	5d                   	pop    %ebp
c0003897:	c3                   	ret    

c0003898 <ioq_full>:
c0003898:	55                   	push   %ebp
c0003899:	89 e5                	mov    %esp,%ebp
c000389b:	83 ec 08             	sub    $0x8,%esp
c000389e:	e8 53 e1 ff ff       	call   c00019f6 <intr_get_status>
c00038a3:	85 c0                	test   %eax,%eax
c00038a5:	74 19                	je     c00038c0 <ioq_full+0x28>
c00038a7:	68 f8 51 00 c0       	push   $0xc00051f8
c00038ac:	68 5c 52 00 c0       	push   $0xc000525c
c00038b1:	6a 12                	push   $0x12
c00038b3:	68 16 52 00 c0       	push   $0xc0005216
c00038b8:	e8 4c e3 ff ff       	call   c0001c09 <panic_spin>
c00038bd:	83 c4 10             	add    $0x10,%esp
c00038c0:	8b 45 08             	mov    0x8(%ebp),%eax
c00038c3:	8b 40 64             	mov    0x64(%eax),%eax
c00038c6:	83 ec 0c             	sub    $0xc,%esp
c00038c9:	50                   	push   %eax
c00038ca:	e8 b2 ff ff ff       	call   c0003881 <next_pos>
c00038cf:	83 c4 10             	add    $0x10,%esp
c00038d2:	8b 55 08             	mov    0x8(%ebp),%edx
c00038d5:	8b 52 68             	mov    0x68(%edx),%edx
c00038d8:	39 d0                	cmp    %edx,%eax
c00038da:	0f 94 c0             	sete   %al
c00038dd:	0f b6 c0             	movzbl %al,%eax
c00038e0:	c9                   	leave  
c00038e1:	c3                   	ret    

c00038e2 <ioq_empty>:
c00038e2:	55                   	push   %ebp
c00038e3:	89 e5                	mov    %esp,%ebp
c00038e5:	83 ec 08             	sub    $0x8,%esp
c00038e8:	e8 09 e1 ff ff       	call   c00019f6 <intr_get_status>
c00038ed:	85 c0                	test   %eax,%eax
c00038ef:	74 19                	je     c000390a <ioq_empty+0x28>
c00038f1:	68 f8 51 00 c0       	push   $0xc00051f8
c00038f6:	68 68 52 00 c0       	push   $0xc0005268
c00038fb:	6a 17                	push   $0x17
c00038fd:	68 16 52 00 c0       	push   $0xc0005216
c0003902:	e8 02 e3 ff ff       	call   c0001c09 <panic_spin>
c0003907:	83 c4 10             	add    $0x10,%esp
c000390a:	8b 45 08             	mov    0x8(%ebp),%eax
c000390d:	8b 50 64             	mov    0x64(%eax),%edx
c0003910:	8b 45 08             	mov    0x8(%ebp),%eax
c0003913:	8b 40 68             	mov    0x68(%eax),%eax
c0003916:	39 c2                	cmp    %eax,%edx
c0003918:	0f 94 c0             	sete   %al
c000391b:	0f b6 c0             	movzbl %al,%eax
c000391e:	c9                   	leave  
c000391f:	c3                   	ret    

c0003920 <ioq_wait>:
c0003920:	55                   	push   %ebp
c0003921:	89 e5                	mov    %esp,%ebp
c0003923:	83 ec 08             	sub    $0x8,%esp
c0003926:	8b 45 08             	mov    0x8(%ebp),%eax
c0003929:	8b 00                	mov    (%eax),%eax
c000392b:	85 c0                	test   %eax,%eax
c000392d:	75 06                	jne    c0003935 <ioq_wait+0x15>
c000392f:	83 7d 08 00          	cmpl   $0x0,0x8(%ebp)
c0003933:	75 19                	jne    c000394e <ioq_wait+0x2e>
c0003935:	68 28 52 00 c0       	push   $0xc0005228
c000393a:	68 74 52 00 c0       	push   $0xc0005274
c000393f:	6a 1d                	push   $0x1d
c0003941:	68 16 52 00 c0       	push   $0xc0005216
c0003946:	e8 be e2 ff ff       	call   c0001c09 <panic_spin>
c000394b:	83 c4 10             	add    $0x10,%esp
c000394e:	e8 41 f1 ff ff       	call   c0002a94 <running_thread>
c0003953:	8b 55 08             	mov    0x8(%ebp),%edx
c0003956:	89 02                	mov    %eax,(%edx)
c0003958:	83 ec 0c             	sub    $0xc,%esp
c000395b:	6a 02                	push   $0x2
c000395d:	e8 de f4 ff ff       	call   c0002e40 <thread_block>
c0003962:	83 c4 10             	add    $0x10,%esp
c0003965:	90                   	nop
c0003966:	c9                   	leave  
c0003967:	c3                   	ret    

c0003968 <wakeup>:
c0003968:	55                   	push   %ebp
c0003969:	89 e5                	mov    %esp,%ebp
c000396b:	83 ec 08             	sub    $0x8,%esp
c000396e:	8b 45 08             	mov    0x8(%ebp),%eax
c0003971:	8b 00                	mov    (%eax),%eax
c0003973:	85 c0                	test   %eax,%eax
c0003975:	75 19                	jne    c0003990 <wakeup+0x28>
c0003977:	68 4a 52 00 c0       	push   $0xc000524a
c000397c:	68 80 52 00 c0       	push   $0xc0005280
c0003981:	6a 24                	push   $0x24
c0003983:	68 16 52 00 c0       	push   $0xc0005216
c0003988:	e8 7c e2 ff ff       	call   c0001c09 <panic_spin>
c000398d:	83 c4 10             	add    $0x10,%esp
c0003990:	8b 45 08             	mov    0x8(%ebp),%eax
c0003993:	8b 00                	mov    (%eax),%eax
c0003995:	83 ec 0c             	sub    $0xc,%esp
c0003998:	50                   	push   %eax
c0003999:	e8 02 f5 ff ff       	call   c0002ea0 <thread_unblock>
c000399e:	83 c4 10             	add    $0x10,%esp
c00039a1:	8b 45 08             	mov    0x8(%ebp),%eax
c00039a4:	c7 00 00 00 00 00    	movl   $0x0,(%eax)
c00039aa:	90                   	nop
c00039ab:	c9                   	leave  
c00039ac:	c3                   	ret    

c00039ad <ioq_getchar>:
c00039ad:	55                   	push   %ebp
c00039ae:	89 e5                	mov    %esp,%ebp
c00039b0:	83 ec 18             	sub    $0x18,%esp
c00039b3:	e8 3e e0 ff ff       	call   c00019f6 <intr_get_status>
c00039b8:	85 c0                	test   %eax,%eax
c00039ba:	74 4b                	je     c0003a07 <ioq_getchar+0x5a>
c00039bc:	68 f8 51 00 c0       	push   $0xc00051f8
c00039c1:	68 88 52 00 c0       	push   $0xc0005288
c00039c6:	6a 2b                	push   $0x2b
c00039c8:	68 16 52 00 c0       	push   $0xc0005216
c00039cd:	e8 37 e2 ff ff       	call   c0001c09 <panic_spin>
c00039d2:	83 c4 10             	add    $0x10,%esp
c00039d5:	eb 30                	jmp    c0003a07 <ioq_getchar+0x5a>
c00039d7:	8b 45 08             	mov    0x8(%ebp),%eax
c00039da:	83 ec 0c             	sub    $0xc,%esp
c00039dd:	50                   	push   %eax
c00039de:	e8 f2 f9 ff ff       	call   c00033d5 <lock_acquire>
c00039e3:	83 c4 10             	add    $0x10,%esp
c00039e6:	8b 45 08             	mov    0x8(%ebp),%eax
c00039e9:	83 c0 20             	add    $0x20,%eax
c00039ec:	83 ec 0c             	sub    $0xc,%esp
c00039ef:	50                   	push   %eax
c00039f0:	e8 2b ff ff ff       	call   c0003920 <ioq_wait>
c00039f5:	83 c4 10             	add    $0x10,%esp
c00039f8:	8b 45 08             	mov    0x8(%ebp),%eax
c00039fb:	83 ec 0c             	sub    $0xc,%esp
c00039fe:	50                   	push   %eax
c00039ff:	e8 46 fa ff ff       	call   c000344a <lock_release>
c0003a04:	83 c4 10             	add    $0x10,%esp
c0003a07:	83 ec 0c             	sub    $0xc,%esp
c0003a0a:	ff 75 08             	push   0x8(%ebp)
c0003a0d:	e8 d0 fe ff ff       	call   c00038e2 <ioq_empty>
c0003a12:	83 c4 10             	add    $0x10,%esp
c0003a15:	85 c0                	test   %eax,%eax
c0003a17:	75 be                	jne    c00039d7 <ioq_getchar+0x2a>
c0003a19:	8b 45 08             	mov    0x8(%ebp),%eax
c0003a1c:	8b 40 68             	mov    0x68(%eax),%eax
c0003a1f:	8b 55 08             	mov    0x8(%ebp),%edx
c0003a22:	8a 44 02 24          	mov    0x24(%edx,%eax,1),%al
c0003a26:	88 45 f7             	mov    %al,-0x9(%ebp)
c0003a29:	8b 45 08             	mov    0x8(%ebp),%eax
c0003a2c:	8b 40 68             	mov    0x68(%eax),%eax
c0003a2f:	83 ec 0c             	sub    $0xc,%esp
c0003a32:	50                   	push   %eax
c0003a33:	e8 49 fe ff ff       	call   c0003881 <next_pos>
c0003a38:	83 c4 10             	add    $0x10,%esp
c0003a3b:	8b 55 08             	mov    0x8(%ebp),%edx
c0003a3e:	89 42 68             	mov    %eax,0x68(%edx)
c0003a41:	8b 45 08             	mov    0x8(%ebp),%eax
c0003a44:	8b 40 1c             	mov    0x1c(%eax),%eax
c0003a47:	85 c0                	test   %eax,%eax
c0003a49:	74 12                	je     c0003a5d <ioq_getchar+0xb0>
c0003a4b:	8b 45 08             	mov    0x8(%ebp),%eax
c0003a4e:	83 c0 1c             	add    $0x1c,%eax
c0003a51:	83 ec 0c             	sub    $0xc,%esp
c0003a54:	50                   	push   %eax
c0003a55:	e8 0e ff ff ff       	call   c0003968 <wakeup>
c0003a5a:	83 c4 10             	add    $0x10,%esp
c0003a5d:	8a 45 f7             	mov    -0x9(%ebp),%al
c0003a60:	c9                   	leave  
c0003a61:	c3                   	ret    

c0003a62 <ioq_putchar>:
c0003a62:	55                   	push   %ebp
c0003a63:	89 e5                	mov    %esp,%ebp
c0003a65:	83 ec 18             	sub    $0x18,%esp
c0003a68:	8b 45 0c             	mov    0xc(%ebp),%eax
c0003a6b:	88 45 f4             	mov    %al,-0xc(%ebp)
c0003a6e:	e8 83 df ff ff       	call   c00019f6 <intr_get_status>
c0003a73:	85 c0                	test   %eax,%eax
c0003a75:	74 4b                	je     c0003ac2 <ioq_putchar+0x60>
c0003a77:	68 f8 51 00 c0       	push   $0xc00051f8
c0003a7c:	68 94 52 00 c0       	push   $0xc0005294
c0003a81:	6a 42                	push   $0x42
c0003a83:	68 16 52 00 c0       	push   $0xc0005216
c0003a88:	e8 7c e1 ff ff       	call   c0001c09 <panic_spin>
c0003a8d:	83 c4 10             	add    $0x10,%esp
c0003a90:	eb 30                	jmp    c0003ac2 <ioq_putchar+0x60>
c0003a92:	8b 45 08             	mov    0x8(%ebp),%eax
c0003a95:	83 ec 0c             	sub    $0xc,%esp
c0003a98:	50                   	push   %eax
c0003a99:	e8 37 f9 ff ff       	call   c00033d5 <lock_acquire>
c0003a9e:	83 c4 10             	add    $0x10,%esp
c0003aa1:	8b 45 08             	mov    0x8(%ebp),%eax
c0003aa4:	83 c0 1c             	add    $0x1c,%eax
c0003aa7:	83 ec 0c             	sub    $0xc,%esp
c0003aaa:	50                   	push   %eax
c0003aab:	e8 70 fe ff ff       	call   c0003920 <ioq_wait>
c0003ab0:	83 c4 10             	add    $0x10,%esp
c0003ab3:	8b 45 08             	mov    0x8(%ebp),%eax
c0003ab6:	83 ec 0c             	sub    $0xc,%esp
c0003ab9:	50                   	push   %eax
c0003aba:	e8 8b f9 ff ff       	call   c000344a <lock_release>
c0003abf:	83 c4 10             	add    $0x10,%esp
c0003ac2:	83 ec 0c             	sub    $0xc,%esp
c0003ac5:	ff 75 08             	push   0x8(%ebp)
c0003ac8:	e8 cb fd ff ff       	call   c0003898 <ioq_full>
c0003acd:	83 c4 10             	add    $0x10,%esp
c0003ad0:	85 c0                	test   %eax,%eax
c0003ad2:	75 be                	jne    c0003a92 <ioq_putchar+0x30>
c0003ad4:	8b 45 08             	mov    0x8(%ebp),%eax
c0003ad7:	8b 40 64             	mov    0x64(%eax),%eax
c0003ada:	8b 55 08             	mov    0x8(%ebp),%edx
c0003add:	8a 4d f4             	mov    -0xc(%ebp),%cl
c0003ae0:	88 4c 02 24          	mov    %cl,0x24(%edx,%eax,1)
c0003ae4:	8b 45 08             	mov    0x8(%ebp),%eax
c0003ae7:	8b 40 64             	mov    0x64(%eax),%eax
c0003aea:	83 ec 0c             	sub    $0xc,%esp
c0003aed:	50                   	push   %eax
c0003aee:	e8 8e fd ff ff       	call   c0003881 <next_pos>
c0003af3:	83 c4 10             	add    $0x10,%esp
c0003af6:	8b 55 08             	mov    0x8(%ebp),%edx
c0003af9:	89 42 64             	mov    %eax,0x64(%edx)
c0003afc:	8b 45 08             	mov    0x8(%ebp),%eax
c0003aff:	8b 40 20             	mov    0x20(%eax),%eax
c0003b02:	85 c0                	test   %eax,%eax
c0003b04:	74 12                	je     c0003b18 <ioq_putchar+0xb6>
c0003b06:	8b 45 08             	mov    0x8(%ebp),%eax
c0003b09:	83 c0 20             	add    $0x20,%eax
c0003b0c:	83 ec 0c             	sub    $0xc,%esp
c0003b0f:	50                   	push   %eax
c0003b10:	e8 53 fe ff ff       	call   c0003968 <wakeup>
c0003b15:	83 c4 10             	add    $0x10,%esp
c0003b18:	90                   	nop
c0003b19:	c9                   	leave  
c0003b1a:	c3                   	ret    
c0003b1b:	66 90                	xchg   %ax,%ax
c0003b1d:	66 90                	xchg   %ax,%ax
c0003b1f:	90                   	nop

c0003b20 <intr_exit>:
c0003b20:	83 c4 04             	add    $0x4,%esp
c0003b23:	61                   	popa   
c0003b24:	0f a9                	pop    %gs
c0003b26:	0f a1                	pop    %fs
c0003b28:	07                   	pop    %es
c0003b29:	1f                   	pop    %ds
c0003b2a:	83 c4 04             	add    $0x4,%esp
c0003b2d:	cf                   	iret   

c0003b2e <intr0x00entry>:
c0003b2e:	6a 00                	push   $0x0
c0003b30:	1e                   	push   %ds
c0003b31:	06                   	push   %es
c0003b32:	0f a0                	push   %fs
c0003b34:	0f a8                	push   %gs
c0003b36:	60                   	pusha  
c0003b37:	b0 20                	mov    $0x20,%al
c0003b39:	e6 a0                	out    %al,$0xa0
c0003b3b:	e6 20                	out    %al,$0x20
c0003b3d:	6a 00                	push   $0x0
c0003b3f:	ff 15 00 66 00 c0    	call   *0xc0006600
c0003b45:	eb d9                	jmp    c0003b20 <intr_exit>

c0003b47 <intr0x01entry>:
c0003b47:	6a 00                	push   $0x0
c0003b49:	1e                   	push   %ds
c0003b4a:	06                   	push   %es
c0003b4b:	0f a0                	push   %fs
c0003b4d:	0f a8                	push   %gs
c0003b4f:	60                   	pusha  
c0003b50:	b0 20                	mov    $0x20,%al
c0003b52:	e6 a0                	out    %al,$0xa0
c0003b54:	e6 20                	out    %al,$0x20
c0003b56:	6a 01                	push   $0x1
c0003b58:	ff 15 04 66 00 c0    	call   *0xc0006604
c0003b5e:	eb c0                	jmp    c0003b20 <intr_exit>

c0003b60 <intr0x02entry>:
c0003b60:	6a 00                	push   $0x0
c0003b62:	1e                   	push   %ds
c0003b63:	06                   	push   %es
c0003b64:	0f a0                	push   %fs
c0003b66:	0f a8                	push   %gs
c0003b68:	60                   	pusha  
c0003b69:	b0 20                	mov    $0x20,%al
c0003b6b:	e6 a0                	out    %al,$0xa0
c0003b6d:	e6 20                	out    %al,$0x20
c0003b6f:	6a 02                	push   $0x2
c0003b71:	ff 15 08 66 00 c0    	call   *0xc0006608
c0003b77:	eb a7                	jmp    c0003b20 <intr_exit>

c0003b79 <intr0x03entry>:
c0003b79:	6a 00                	push   $0x0
c0003b7b:	1e                   	push   %ds
c0003b7c:	06                   	push   %es
c0003b7d:	0f a0                	push   %fs
c0003b7f:	0f a8                	push   %gs
c0003b81:	60                   	pusha  
c0003b82:	b0 20                	mov    $0x20,%al
c0003b84:	e6 a0                	out    %al,$0xa0
c0003b86:	e6 20                	out    %al,$0x20
c0003b88:	6a 03                	push   $0x3
c0003b8a:	ff 15 0c 66 00 c0    	call   *0xc000660c
c0003b90:	eb 8e                	jmp    c0003b20 <intr_exit>

c0003b92 <intr0x04entry>:
c0003b92:	6a 00                	push   $0x0
c0003b94:	1e                   	push   %ds
c0003b95:	06                   	push   %es
c0003b96:	0f a0                	push   %fs
c0003b98:	0f a8                	push   %gs
c0003b9a:	60                   	pusha  
c0003b9b:	b0 20                	mov    $0x20,%al
c0003b9d:	e6 a0                	out    %al,$0xa0
c0003b9f:	e6 20                	out    %al,$0x20
c0003ba1:	6a 04                	push   $0x4
c0003ba3:	ff 15 10 66 00 c0    	call   *0xc0006610
c0003ba9:	e9 72 ff ff ff       	jmp    c0003b20 <intr_exit>

c0003bae <intr0x05entry>:
c0003bae:	6a 00                	push   $0x0
c0003bb0:	1e                   	push   %ds
c0003bb1:	06                   	push   %es
c0003bb2:	0f a0                	push   %fs
c0003bb4:	0f a8                	push   %gs
c0003bb6:	60                   	pusha  
c0003bb7:	b0 20                	mov    $0x20,%al
c0003bb9:	e6 a0                	out    %al,$0xa0
c0003bbb:	e6 20                	out    %al,$0x20
c0003bbd:	6a 05                	push   $0x5
c0003bbf:	ff 15 14 66 00 c0    	call   *0xc0006614
c0003bc5:	e9 56 ff ff ff       	jmp    c0003b20 <intr_exit>

c0003bca <intr0x06entry>:
c0003bca:	6a 00                	push   $0x0
c0003bcc:	1e                   	push   %ds
c0003bcd:	06                   	push   %es
c0003bce:	0f a0                	push   %fs
c0003bd0:	0f a8                	push   %gs
c0003bd2:	60                   	pusha  
c0003bd3:	b0 20                	mov    $0x20,%al
c0003bd5:	e6 a0                	out    %al,$0xa0
c0003bd7:	e6 20                	out    %al,$0x20
c0003bd9:	6a 06                	push   $0x6
c0003bdb:	ff 15 18 66 00 c0    	call   *0xc0006618
c0003be1:	e9 3a ff ff ff       	jmp    c0003b20 <intr_exit>

c0003be6 <intr0x07entry>:
c0003be6:	6a 00                	push   $0x0
c0003be8:	1e                   	push   %ds
c0003be9:	06                   	push   %es
c0003bea:	0f a0                	push   %fs
c0003bec:	0f a8                	push   %gs
c0003bee:	60                   	pusha  
c0003bef:	b0 20                	mov    $0x20,%al
c0003bf1:	e6 a0                	out    %al,$0xa0
c0003bf3:	e6 20                	out    %al,$0x20
c0003bf5:	6a 07                	push   $0x7
c0003bf7:	ff 15 1c 66 00 c0    	call   *0xc000661c
c0003bfd:	e9 1e ff ff ff       	jmp    c0003b20 <intr_exit>

c0003c02 <intr0x08entry>:
c0003c02:	90                   	nop
c0003c03:	1e                   	push   %ds
c0003c04:	06                   	push   %es
c0003c05:	0f a0                	push   %fs
c0003c07:	0f a8                	push   %gs
c0003c09:	60                   	pusha  
c0003c0a:	b0 20                	mov    $0x20,%al
c0003c0c:	e6 a0                	out    %al,$0xa0
c0003c0e:	e6 20                	out    %al,$0x20
c0003c10:	6a 08                	push   $0x8
c0003c12:	ff 15 20 66 00 c0    	call   *0xc0006620
c0003c18:	e9 03 ff ff ff       	jmp    c0003b20 <intr_exit>

c0003c1d <intr0x09entry>:
c0003c1d:	6a 00                	push   $0x0
c0003c1f:	1e                   	push   %ds
c0003c20:	06                   	push   %es
c0003c21:	0f a0                	push   %fs
c0003c23:	0f a8                	push   %gs
c0003c25:	60                   	pusha  
c0003c26:	b0 20                	mov    $0x20,%al
c0003c28:	e6 a0                	out    %al,$0xa0
c0003c2a:	e6 20                	out    %al,$0x20
c0003c2c:	6a 09                	push   $0x9
c0003c2e:	ff 15 24 66 00 c0    	call   *0xc0006624
c0003c34:	e9 e7 fe ff ff       	jmp    c0003b20 <intr_exit>

c0003c39 <intr0x0aentry>:
c0003c39:	90                   	nop
c0003c3a:	1e                   	push   %ds
c0003c3b:	06                   	push   %es
c0003c3c:	0f a0                	push   %fs
c0003c3e:	0f a8                	push   %gs
c0003c40:	60                   	pusha  
c0003c41:	b0 20                	mov    $0x20,%al
c0003c43:	e6 a0                	out    %al,$0xa0
c0003c45:	e6 20                	out    %al,$0x20
c0003c47:	6a 0a                	push   $0xa
c0003c49:	ff 15 28 66 00 c0    	call   *0xc0006628
c0003c4f:	e9 cc fe ff ff       	jmp    c0003b20 <intr_exit>

c0003c54 <intr0x0bentry>:
c0003c54:	90                   	nop
c0003c55:	1e                   	push   %ds
c0003c56:	06                   	push   %es
c0003c57:	0f a0                	push   %fs
c0003c59:	0f a8                	push   %gs
c0003c5b:	60                   	pusha  
c0003c5c:	b0 20                	mov    $0x20,%al
c0003c5e:	e6 a0                	out    %al,$0xa0
c0003c60:	e6 20                	out    %al,$0x20
c0003c62:	6a 0b                	push   $0xb
c0003c64:	ff 15 2c 66 00 c0    	call   *0xc000662c
c0003c6a:	e9 b1 fe ff ff       	jmp    c0003b20 <intr_exit>

c0003c6f <intr0x0centry>:
c0003c6f:	6a 00                	push   $0x0
c0003c71:	1e                   	push   %ds
c0003c72:	06                   	push   %es
c0003c73:	0f a0                	push   %fs
c0003c75:	0f a8                	push   %gs
c0003c77:	60                   	pusha  
c0003c78:	b0 20                	mov    $0x20,%al
c0003c7a:	e6 a0                	out    %al,$0xa0
c0003c7c:	e6 20                	out    %al,$0x20
c0003c7e:	6a 0c                	push   $0xc
c0003c80:	ff 15 30 66 00 c0    	call   *0xc0006630
c0003c86:	e9 95 fe ff ff       	jmp    c0003b20 <intr_exit>

c0003c8b <intr0x0dentry>:
c0003c8b:	90                   	nop
c0003c8c:	1e                   	push   %ds
c0003c8d:	06                   	push   %es
c0003c8e:	0f a0                	push   %fs
c0003c90:	0f a8                	push   %gs
c0003c92:	60                   	pusha  
c0003c93:	b0 20                	mov    $0x20,%al
c0003c95:	e6 a0                	out    %al,$0xa0
c0003c97:	e6 20                	out    %al,$0x20
c0003c99:	6a 0d                	push   $0xd
c0003c9b:	ff 15 34 66 00 c0    	call   *0xc0006634
c0003ca1:	e9 7a fe ff ff       	jmp    c0003b20 <intr_exit>

c0003ca6 <intr0x0eentry>:
c0003ca6:	90                   	nop
c0003ca7:	1e                   	push   %ds
c0003ca8:	06                   	push   %es
c0003ca9:	0f a0                	push   %fs
c0003cab:	0f a8                	push   %gs
c0003cad:	60                   	pusha  
c0003cae:	b0 20                	mov    $0x20,%al
c0003cb0:	e6 a0                	out    %al,$0xa0
c0003cb2:	e6 20                	out    %al,$0x20
c0003cb4:	6a 0e                	push   $0xe
c0003cb6:	ff 15 38 66 00 c0    	call   *0xc0006638
c0003cbc:	e9 5f fe ff ff       	jmp    c0003b20 <intr_exit>

c0003cc1 <intr0x0fentry>:
c0003cc1:	6a 00                	push   $0x0
c0003cc3:	1e                   	push   %ds
c0003cc4:	06                   	push   %es
c0003cc5:	0f a0                	push   %fs
c0003cc7:	0f a8                	push   %gs
c0003cc9:	60                   	pusha  
c0003cca:	b0 20                	mov    $0x20,%al
c0003ccc:	e6 a0                	out    %al,$0xa0
c0003cce:	e6 20                	out    %al,$0x20
c0003cd0:	6a 0f                	push   $0xf
c0003cd2:	ff 15 3c 66 00 c0    	call   *0xc000663c
c0003cd8:	e9 43 fe ff ff       	jmp    c0003b20 <intr_exit>

c0003cdd <intr0x10entry>:
c0003cdd:	6a 00                	push   $0x0
c0003cdf:	1e                   	push   %ds
c0003ce0:	06                   	push   %es
c0003ce1:	0f a0                	push   %fs
c0003ce3:	0f a8                	push   %gs
c0003ce5:	60                   	pusha  
c0003ce6:	b0 20                	mov    $0x20,%al
c0003ce8:	e6 a0                	out    %al,$0xa0
c0003cea:	e6 20                	out    %al,$0x20
c0003cec:	6a 10                	push   $0x10
c0003cee:	ff 15 40 66 00 c0    	call   *0xc0006640
c0003cf4:	e9 27 fe ff ff       	jmp    c0003b20 <intr_exit>

c0003cf9 <intr0x11entry>:
c0003cf9:	90                   	nop
c0003cfa:	1e                   	push   %ds
c0003cfb:	06                   	push   %es
c0003cfc:	0f a0                	push   %fs
c0003cfe:	0f a8                	push   %gs
c0003d00:	60                   	pusha  
c0003d01:	b0 20                	mov    $0x20,%al
c0003d03:	e6 a0                	out    %al,$0xa0
c0003d05:	e6 20                	out    %al,$0x20
c0003d07:	6a 11                	push   $0x11
c0003d09:	ff 15 44 66 00 c0    	call   *0xc0006644
c0003d0f:	e9 0c fe ff ff       	jmp    c0003b20 <intr_exit>

c0003d14 <intr0x12entry>:
c0003d14:	6a 00                	push   $0x0
c0003d16:	1e                   	push   %ds
c0003d17:	06                   	push   %es
c0003d18:	0f a0                	push   %fs
c0003d1a:	0f a8                	push   %gs
c0003d1c:	60                   	pusha  
c0003d1d:	b0 20                	mov    $0x20,%al
c0003d1f:	e6 a0                	out    %al,$0xa0
c0003d21:	e6 20                	out    %al,$0x20
c0003d23:	6a 12                	push   $0x12
c0003d25:	ff 15 48 66 00 c0    	call   *0xc0006648
c0003d2b:	e9 f0 fd ff ff       	jmp    c0003b20 <intr_exit>

c0003d30 <intr0x13entry>:
c0003d30:	6a 00                	push   $0x0
c0003d32:	1e                   	push   %ds
c0003d33:	06                   	push   %es
c0003d34:	0f a0                	push   %fs
c0003d36:	0f a8                	push   %gs
c0003d38:	60                   	pusha  
c0003d39:	b0 20                	mov    $0x20,%al
c0003d3b:	e6 a0                	out    %al,$0xa0
c0003d3d:	e6 20                	out    %al,$0x20
c0003d3f:	6a 13                	push   $0x13
c0003d41:	ff 15 4c 66 00 c0    	call   *0xc000664c
c0003d47:	e9 d4 fd ff ff       	jmp    c0003b20 <intr_exit>

c0003d4c <intr0x14entry>:
c0003d4c:	6a 00                	push   $0x0
c0003d4e:	1e                   	push   %ds
c0003d4f:	06                   	push   %es
c0003d50:	0f a0                	push   %fs
c0003d52:	0f a8                	push   %gs
c0003d54:	60                   	pusha  
c0003d55:	b0 20                	mov    $0x20,%al
c0003d57:	e6 a0                	out    %al,$0xa0
c0003d59:	e6 20                	out    %al,$0x20
c0003d5b:	6a 14                	push   $0x14
c0003d5d:	ff 15 50 66 00 c0    	call   *0xc0006650
c0003d63:	e9 b8 fd ff ff       	jmp    c0003b20 <intr_exit>

c0003d68 <intr0x15entry>:
c0003d68:	6a 00                	push   $0x0
c0003d6a:	1e                   	push   %ds
c0003d6b:	06                   	push   %es
c0003d6c:	0f a0                	push   %fs
c0003d6e:	0f a8                	push   %gs
c0003d70:	60                   	pusha  
c0003d71:	b0 20                	mov    $0x20,%al
c0003d73:	e6 a0                	out    %al,$0xa0
c0003d75:	e6 20                	out    %al,$0x20
c0003d77:	6a 15                	push   $0x15
c0003d79:	ff 15 54 66 00 c0    	call   *0xc0006654
c0003d7f:	e9 9c fd ff ff       	jmp    c0003b20 <intr_exit>

c0003d84 <intr0x16entry>:
c0003d84:	6a 00                	push   $0x0
c0003d86:	1e                   	push   %ds
c0003d87:	06                   	push   %es
c0003d88:	0f a0                	push   %fs
c0003d8a:	0f a8                	push   %gs
c0003d8c:	60                   	pusha  
c0003d8d:	b0 20                	mov    $0x20,%al
c0003d8f:	e6 a0                	out    %al,$0xa0
c0003d91:	e6 20                	out    %al,$0x20
c0003d93:	6a 16                	push   $0x16
c0003d95:	ff 15 58 66 00 c0    	call   *0xc0006658
c0003d9b:	e9 80 fd ff ff       	jmp    c0003b20 <intr_exit>

c0003da0 <intr0x17entry>:
c0003da0:	6a 00                	push   $0x0
c0003da2:	1e                   	push   %ds
c0003da3:	06                   	push   %es
c0003da4:	0f a0                	push   %fs
c0003da6:	0f a8                	push   %gs
c0003da8:	60                   	pusha  
c0003da9:	b0 20                	mov    $0x20,%al
c0003dab:	e6 a0                	out    %al,$0xa0
c0003dad:	e6 20                	out    %al,$0x20
c0003daf:	6a 17                	push   $0x17
c0003db1:	ff 15 5c 66 00 c0    	call   *0xc000665c
c0003db7:	e9 64 fd ff ff       	jmp    c0003b20 <intr_exit>

c0003dbc <intr0x18entry>:
c0003dbc:	90                   	nop
c0003dbd:	1e                   	push   %ds
c0003dbe:	06                   	push   %es
c0003dbf:	0f a0                	push   %fs
c0003dc1:	0f a8                	push   %gs
c0003dc3:	60                   	pusha  
c0003dc4:	b0 20                	mov    $0x20,%al
c0003dc6:	e6 a0                	out    %al,$0xa0
c0003dc8:	e6 20                	out    %al,$0x20
c0003dca:	6a 18                	push   $0x18
c0003dcc:	ff 15 60 66 00 c0    	call   *0xc0006660
c0003dd2:	e9 49 fd ff ff       	jmp    c0003b20 <intr_exit>

c0003dd7 <intr0x19entry>:
c0003dd7:	6a 00                	push   $0x0
c0003dd9:	1e                   	push   %ds
c0003dda:	06                   	push   %es
c0003ddb:	0f a0                	push   %fs
c0003ddd:	0f a8                	push   %gs
c0003ddf:	60                   	pusha  
c0003de0:	b0 20                	mov    $0x20,%al
c0003de2:	e6 a0                	out    %al,$0xa0
c0003de4:	e6 20                	out    %al,$0x20
c0003de6:	6a 19                	push   $0x19
c0003de8:	ff 15 64 66 00 c0    	call   *0xc0006664
c0003dee:	e9 2d fd ff ff       	jmp    c0003b20 <intr_exit>

c0003df3 <intr0x1aentry>:
c0003df3:	90                   	nop
c0003df4:	1e                   	push   %ds
c0003df5:	06                   	push   %es
c0003df6:	0f a0                	push   %fs
c0003df8:	0f a8                	push   %gs
c0003dfa:	60                   	pusha  
c0003dfb:	b0 20                	mov    $0x20,%al
c0003dfd:	e6 a0                	out    %al,$0xa0
c0003dff:	e6 20                	out    %al,$0x20
c0003e01:	6a 1a                	push   $0x1a
c0003e03:	ff 15 68 66 00 c0    	call   *0xc0006668
c0003e09:	e9 12 fd ff ff       	jmp    c0003b20 <intr_exit>

c0003e0e <intr0x1bentry>:
c0003e0e:	90                   	nop
c0003e0f:	1e                   	push   %ds
c0003e10:	06                   	push   %es
c0003e11:	0f a0                	push   %fs
c0003e13:	0f a8                	push   %gs
c0003e15:	60                   	pusha  
c0003e16:	b0 20                	mov    $0x20,%al
c0003e18:	e6 a0                	out    %al,$0xa0
c0003e1a:	e6 20                	out    %al,$0x20
c0003e1c:	6a 1b                	push   $0x1b
c0003e1e:	ff 15 6c 66 00 c0    	call   *0xc000666c
c0003e24:	e9 f7 fc ff ff       	jmp    c0003b20 <intr_exit>

c0003e29 <intr0x1centry>:
c0003e29:	6a 00                	push   $0x0
c0003e2b:	1e                   	push   %ds
c0003e2c:	06                   	push   %es
c0003e2d:	0f a0                	push   %fs
c0003e2f:	0f a8                	push   %gs
c0003e31:	60                   	pusha  
c0003e32:	b0 20                	mov    $0x20,%al
c0003e34:	e6 a0                	out    %al,$0xa0
c0003e36:	e6 20                	out    %al,$0x20
c0003e38:	6a 1c                	push   $0x1c
c0003e3a:	ff 15 70 66 00 c0    	call   *0xc0006670
c0003e40:	e9 db fc ff ff       	jmp    c0003b20 <intr_exit>

c0003e45 <intr0x1dentry>:
c0003e45:	90                   	nop
c0003e46:	1e                   	push   %ds
c0003e47:	06                   	push   %es
c0003e48:	0f a0                	push   %fs
c0003e4a:	0f a8                	push   %gs
c0003e4c:	60                   	pusha  
c0003e4d:	b0 20                	mov    $0x20,%al
c0003e4f:	e6 a0                	out    %al,$0xa0
c0003e51:	e6 20                	out    %al,$0x20
c0003e53:	6a 1d                	push   $0x1d
c0003e55:	ff 15 74 66 00 c0    	call   *0xc0006674
c0003e5b:	e9 c0 fc ff ff       	jmp    c0003b20 <intr_exit>

c0003e60 <intr0x1eentry>:
c0003e60:	90                   	nop
c0003e61:	1e                   	push   %ds
c0003e62:	06                   	push   %es
c0003e63:	0f a0                	push   %fs
c0003e65:	0f a8                	push   %gs
c0003e67:	60                   	pusha  
c0003e68:	b0 20                	mov    $0x20,%al
c0003e6a:	e6 a0                	out    %al,$0xa0
c0003e6c:	e6 20                	out    %al,$0x20
c0003e6e:	6a 1e                	push   $0x1e
c0003e70:	ff 15 78 66 00 c0    	call   *0xc0006678
c0003e76:	e9 a5 fc ff ff       	jmp    c0003b20 <intr_exit>

c0003e7b <intr0x1fentry>:
c0003e7b:	6a 00                	push   $0x0
c0003e7d:	1e                   	push   %ds
c0003e7e:	06                   	push   %es
c0003e7f:	0f a0                	push   %fs
c0003e81:	0f a8                	push   %gs
c0003e83:	60                   	pusha  
c0003e84:	b0 20                	mov    $0x20,%al
c0003e86:	e6 a0                	out    %al,$0xa0
c0003e88:	e6 20                	out    %al,$0x20
c0003e8a:	6a 1f                	push   $0x1f
c0003e8c:	ff 15 7c 66 00 c0    	call   *0xc000667c
c0003e92:	e9 89 fc ff ff       	jmp    c0003b20 <intr_exit>

c0003e97 <intr0x20entry>:
c0003e97:	6a 00                	push   $0x0
c0003e99:	1e                   	push   %ds
c0003e9a:	06                   	push   %es
c0003e9b:	0f a0                	push   %fs
c0003e9d:	0f a8                	push   %gs
c0003e9f:	60                   	pusha  
c0003ea0:	b0 20                	mov    $0x20,%al
c0003ea2:	e6 a0                	out    %al,$0xa0
c0003ea4:	e6 20                	out    %al,$0x20
c0003ea6:	6a 20                	push   $0x20
c0003ea8:	ff 15 80 66 00 c0    	call   *0xc0006680
c0003eae:	e9 6d fc ff ff       	jmp    c0003b20 <intr_exit>

c0003eb3 <intr0x21entry>:
c0003eb3:	6a 00                	push   $0x0
c0003eb5:	1e                   	push   %ds
c0003eb6:	06                   	push   %es
c0003eb7:	0f a0                	push   %fs
c0003eb9:	0f a8                	push   %gs
c0003ebb:	60                   	pusha  
c0003ebc:	b0 20                	mov    $0x20,%al
c0003ebe:	e6 a0                	out    %al,$0xa0
c0003ec0:	e6 20                	out    %al,$0x20
c0003ec2:	6a 21                	push   $0x21
c0003ec4:	ff 15 84 66 00 c0    	call   *0xc0006684
c0003eca:	e9 51 fc ff ff       	jmp    c0003b20 <intr_exit>

c0003ecf <intr0x22entry>:
c0003ecf:	6a 00                	push   $0x0
c0003ed1:	1e                   	push   %ds
c0003ed2:	06                   	push   %es
c0003ed3:	0f a0                	push   %fs
c0003ed5:	0f a8                	push   %gs
c0003ed7:	60                   	pusha  
c0003ed8:	b0 20                	mov    $0x20,%al
c0003eda:	e6 a0                	out    %al,$0xa0
c0003edc:	e6 20                	out    %al,$0x20
c0003ede:	6a 22                	push   $0x22
c0003ee0:	ff 15 88 66 00 c0    	call   *0xc0006688
c0003ee6:	e9 35 fc ff ff       	jmp    c0003b20 <intr_exit>

c0003eeb <intr0x23entry>:
c0003eeb:	6a 00                	push   $0x0
c0003eed:	1e                   	push   %ds
c0003eee:	06                   	push   %es
c0003eef:	0f a0                	push   %fs
c0003ef1:	0f a8                	push   %gs
c0003ef3:	60                   	pusha  
c0003ef4:	b0 20                	mov    $0x20,%al
c0003ef6:	e6 a0                	out    %al,$0xa0
c0003ef8:	e6 20                	out    %al,$0x20
c0003efa:	6a 23                	push   $0x23
c0003efc:	ff 15 8c 66 00 c0    	call   *0xc000668c
c0003f02:	e9 19 fc ff ff       	jmp    c0003b20 <intr_exit>

c0003f07 <intr0x24entry>:
c0003f07:	6a 00                	push   $0x0
c0003f09:	1e                   	push   %ds
c0003f0a:	06                   	push   %es
c0003f0b:	0f a0                	push   %fs
c0003f0d:	0f a8                	push   %gs
c0003f0f:	60                   	pusha  
c0003f10:	b0 20                	mov    $0x20,%al
c0003f12:	e6 a0                	out    %al,$0xa0
c0003f14:	e6 20                	out    %al,$0x20
c0003f16:	6a 24                	push   $0x24
c0003f18:	ff 15 90 66 00 c0    	call   *0xc0006690
c0003f1e:	e9 fd fb ff ff       	jmp    c0003b20 <intr_exit>

c0003f23 <intr0x25entry>:
c0003f23:	6a 00                	push   $0x0
c0003f25:	1e                   	push   %ds
c0003f26:	06                   	push   %es
c0003f27:	0f a0                	push   %fs
c0003f29:	0f a8                	push   %gs
c0003f2b:	60                   	pusha  
c0003f2c:	b0 20                	mov    $0x20,%al
c0003f2e:	e6 a0                	out    %al,$0xa0
c0003f30:	e6 20                	out    %al,$0x20
c0003f32:	6a 25                	push   $0x25
c0003f34:	ff 15 94 66 00 c0    	call   *0xc0006694
c0003f3a:	e9 e1 fb ff ff       	jmp    c0003b20 <intr_exit>

c0003f3f <intr0x26entry>:
c0003f3f:	6a 00                	push   $0x0
c0003f41:	1e                   	push   %ds
c0003f42:	06                   	push   %es
c0003f43:	0f a0                	push   %fs
c0003f45:	0f a8                	push   %gs
c0003f47:	60                   	pusha  
c0003f48:	b0 20                	mov    $0x20,%al
c0003f4a:	e6 a0                	out    %al,$0xa0
c0003f4c:	e6 20                	out    %al,$0x20
c0003f4e:	6a 26                	push   $0x26
c0003f50:	ff 15 98 66 00 c0    	call   *0xc0006698
c0003f56:	e9 c5 fb ff ff       	jmp    c0003b20 <intr_exit>

c0003f5b <intr0x27entry>:
c0003f5b:	6a 00                	push   $0x0
c0003f5d:	1e                   	push   %ds
c0003f5e:	06                   	push   %es
c0003f5f:	0f a0                	push   %fs
c0003f61:	0f a8                	push   %gs
c0003f63:	60                   	pusha  
c0003f64:	b0 20                	mov    $0x20,%al
c0003f66:	e6 a0                	out    %al,$0xa0
c0003f68:	e6 20                	out    %al,$0x20
c0003f6a:	6a 27                	push   $0x27
c0003f6c:	ff 15 9c 66 00 c0    	call   *0xc000669c
c0003f72:	e9 a9 fb ff ff       	jmp    c0003b20 <intr_exit>

c0003f77 <intr0x28entry>:
c0003f77:	6a 00                	push   $0x0
c0003f79:	1e                   	push   %ds
c0003f7a:	06                   	push   %es
c0003f7b:	0f a0                	push   %fs
c0003f7d:	0f a8                	push   %gs
c0003f7f:	60                   	pusha  
c0003f80:	b0 20                	mov    $0x20,%al
c0003f82:	e6 a0                	out    %al,$0xa0
c0003f84:	e6 20                	out    %al,$0x20
c0003f86:	6a 28                	push   $0x28
c0003f88:	ff 15 a0 66 00 c0    	call   *0xc00066a0
c0003f8e:	e9 8d fb ff ff       	jmp    c0003b20 <intr_exit>

c0003f93 <intr0x29entry>:
c0003f93:	6a 00                	push   $0x0
c0003f95:	1e                   	push   %ds
c0003f96:	06                   	push   %es
c0003f97:	0f a0                	push   %fs
c0003f99:	0f a8                	push   %gs
c0003f9b:	60                   	pusha  
c0003f9c:	b0 20                	mov    $0x20,%al
c0003f9e:	e6 a0                	out    %al,$0xa0
c0003fa0:	e6 20                	out    %al,$0x20
c0003fa2:	6a 29                	push   $0x29
c0003fa4:	ff 15 a4 66 00 c0    	call   *0xc00066a4
c0003faa:	e9 71 fb ff ff       	jmp    c0003b20 <intr_exit>

c0003faf <intr0x2aentry>:
c0003faf:	6a 00                	push   $0x0
c0003fb1:	1e                   	push   %ds
c0003fb2:	06                   	push   %es
c0003fb3:	0f a0                	push   %fs
c0003fb5:	0f a8                	push   %gs
c0003fb7:	60                   	pusha  
c0003fb8:	b0 20                	mov    $0x20,%al
c0003fba:	e6 a0                	out    %al,$0xa0
c0003fbc:	e6 20                	out    %al,$0x20
c0003fbe:	6a 2a                	push   $0x2a
c0003fc0:	ff 15 a8 66 00 c0    	call   *0xc00066a8
c0003fc6:	e9 55 fb ff ff       	jmp    c0003b20 <intr_exit>

c0003fcb <intr0x2bentry>:
c0003fcb:	6a 00                	push   $0x0
c0003fcd:	1e                   	push   %ds
c0003fce:	06                   	push   %es
c0003fcf:	0f a0                	push   %fs
c0003fd1:	0f a8                	push   %gs
c0003fd3:	60                   	pusha  
c0003fd4:	b0 20                	mov    $0x20,%al
c0003fd6:	e6 a0                	out    %al,$0xa0
c0003fd8:	e6 20                	out    %al,$0x20
c0003fda:	6a 2b                	push   $0x2b
c0003fdc:	ff 15 ac 66 00 c0    	call   *0xc00066ac
c0003fe2:	e9 39 fb ff ff       	jmp    c0003b20 <intr_exit>

c0003fe7 <intr0x2centry>:
c0003fe7:	6a 00                	push   $0x0
c0003fe9:	1e                   	push   %ds
c0003fea:	06                   	push   %es
c0003feb:	0f a0                	push   %fs
c0003fed:	0f a8                	push   %gs
c0003fef:	60                   	pusha  
c0003ff0:	b0 20                	mov    $0x20,%al
c0003ff2:	e6 a0                	out    %al,$0xa0
c0003ff4:	e6 20                	out    %al,$0x20
c0003ff6:	6a 2c                	push   $0x2c
c0003ff8:	ff 15 b0 66 00 c0    	call   *0xc00066b0
c0003ffe:	e9 1d fb ff ff       	jmp    c0003b20 <intr_exit>

c0004003 <intr0x2dentry>:
c0004003:	6a 00                	push   $0x0
c0004005:	1e                   	push   %ds
c0004006:	06                   	push   %es
c0004007:	0f a0                	push   %fs
c0004009:	0f a8                	push   %gs
c000400b:	60                   	pusha  
c000400c:	b0 20                	mov    $0x20,%al
c000400e:	e6 a0                	out    %al,$0xa0
c0004010:	e6 20                	out    %al,$0x20
c0004012:	6a 2d                	push   $0x2d
c0004014:	ff 15 b4 66 00 c0    	call   *0xc00066b4
c000401a:	e9 01 fb ff ff       	jmp    c0003b20 <intr_exit>

c000401f <intr0x2eentry>:
c000401f:	6a 00                	push   $0x0
c0004021:	1e                   	push   %ds
c0004022:	06                   	push   %es
c0004023:	0f a0                	push   %fs
c0004025:	0f a8                	push   %gs
c0004027:	60                   	pusha  
c0004028:	b0 20                	mov    $0x20,%al
c000402a:	e6 a0                	out    %al,$0xa0
c000402c:	e6 20                	out    %al,$0x20
c000402e:	6a 2e                	push   $0x2e
c0004030:	ff 15 b8 66 00 c0    	call   *0xc00066b8
c0004036:	e9 e5 fa ff ff       	jmp    c0003b20 <intr_exit>

c000403b <intr0x2fentry>:
c000403b:	6a 00                	push   $0x0
c000403d:	1e                   	push   %ds
c000403e:	06                   	push   %es
c000403f:	0f a0                	push   %fs
c0004041:	0f a8                	push   %gs
c0004043:	60                   	pusha  
c0004044:	b0 20                	mov    $0x20,%al
c0004046:	e6 a0                	out    %al,$0xa0
c0004048:	e6 20                	out    %al,$0x20
c000404a:	6a 2f                	push   $0x2f
c000404c:	ff 15 bc 66 00 c0    	call   *0xc00066bc
c0004052:	e9 c9 fa ff ff       	jmp    c0003b20 <intr_exit>
c0004057:	66 90                	xchg   %ax,%ax
c0004059:	66 90                	xchg   %ax,%ax
c000405b:	66 90                	xchg   %ax,%ax
c000405d:	66 90                	xchg   %ax,%ax
c000405f:	90                   	nop

c0004060 <put_str>:
c0004060:	53                   	push   %ebx
c0004061:	51                   	push   %ecx
c0004062:	31 c9                	xor    %ecx,%ecx
c0004064:	8b 5c 24 0c          	mov    0xc(%esp),%ebx

c0004068 <put_str.goon>:
c0004068:	8a 0b                	mov    (%ebx),%cl
c000406a:	80 f9 00             	cmp    $0x0,%cl
c000406d:	74 0c                	je     c000407b <put_str.str_over>
c000406f:	51                   	push   %ecx
c0004070:	e8 09 00 00 00       	call   c000407e <put_char>
c0004075:	83 c4 04             	add    $0x4,%esp
c0004078:	43                   	inc    %ebx
c0004079:	eb ed                	jmp    c0004068 <put_str.goon>

c000407b <put_str.str_over>:
c000407b:	59                   	pop    %ecx
c000407c:	5b                   	pop    %ebx
c000407d:	c3                   	ret    

c000407e <put_char>:
c000407e:	60                   	pusha  
c000407f:	66 b8 18 00          	mov    $0x18,%ax
c0004083:	8e e8                	mov    %eax,%gs
c0004085:	66 ba d4 03          	mov    $0x3d4,%dx
c0004089:	b0 0e                	mov    $0xe,%al
c000408b:	ee                   	out    %al,(%dx)
c000408c:	66 ba d5 03          	mov    $0x3d5,%dx
c0004090:	ec                   	in     (%dx),%al
c0004091:	88 c4                	mov    %al,%ah
c0004093:	66 ba d4 03          	mov    $0x3d4,%dx
c0004097:	b0 0f                	mov    $0xf,%al
c0004099:	ee                   	out    %al,(%dx)
c000409a:	66 ba d5 03          	mov    $0x3d5,%dx
c000409e:	ec                   	in     (%dx),%al
c000409f:	66 89 c3             	mov    %ax,%bx
c00040a2:	8b 4c 24 24          	mov    0x24(%esp),%ecx
c00040a6:	80 f9 0d             	cmp    $0xd,%cl
c00040a9:	74 3c                	je     c00040e7 <put_char.is_carriage_return>
c00040ab:	80 f9 0a             	cmp    $0xa,%cl
c00040ae:	74 37                	je     c00040e7 <put_char.is_carriage_return>
c00040b0:	80 f9 08             	cmp    $0x8,%cl
c00040b3:	74 02                	je     c00040b7 <put_char.is_backspace>
c00040b5:	eb 16                	jmp    c00040cd <put_char.put_other>

c00040b7 <put_char.is_backspace>:
c00040b7:	66 4b                	dec    %bx
c00040b9:	66 d1 e3             	shl    %bx
c00040bc:	65 67 c6 07 20       	movb   $0x20,%gs:(%bx)
c00040c1:	66 43                	inc    %bx
c00040c3:	65 67 c6 07 07       	movb   $0x7,%gs:(%bx)
c00040c8:	66 d1 eb             	shr    %bx
c00040cb:	eb 60                	jmp    c000412d <put_char.set_cursor>

c00040cd <put_char.put_other>:
c00040cd:	66 d1 e3             	shl    %bx
c00040d0:	65 67 88 0f          	mov    %cl,%gs:(%bx)
c00040d4:	66 43                	inc    %bx
c00040d6:	65 67 c6 07 07       	movb   $0x7,%gs:(%bx)
c00040db:	66 d1 eb             	shr    %bx
c00040de:	66 43                	inc    %bx
c00040e0:	66 81 fb d0 07       	cmp    $0x7d0,%bx
c00040e5:	7c 46                	jl     c000412d <put_char.set_cursor>

c00040e7 <put_char.is_carriage_return>:
c00040e7:	66 31 d2             	xor    %dx,%dx
c00040ea:	66 89 d8             	mov    %bx,%ax
c00040ed:	66 be 50 00          	mov    $0x50,%si
c00040f1:	66 f7 f6             	div    %si
c00040f4:	66 29 d3             	sub    %dx,%bx

c00040f7 <put_char.is_carriage_return_end>:
c00040f7:	66 83 c3 50          	add    $0x50,%bx
c00040fb:	66 81 fb d0 07       	cmp    $0x7d0,%bx

c0004100 <put_char.is_line_feed_end>:
c0004100:	7c 2b                	jl     c000412d <put_char.set_cursor>

c0004102 <put_char.roll_screen>:
c0004102:	fc                   	cld    
c0004103:	b9 c0 03 00 00       	mov    $0x3c0,%ecx
c0004108:	be a0 80 0b 00       	mov    $0xb80a0,%esi
c000410d:	bf 00 80 0b 00       	mov    $0xb8000,%edi
c0004112:	f3 a5                	rep movsl %ds:(%esi),%es:(%edi)
c0004114:	bb 00 0f 00 00       	mov    $0xf00,%ebx
c0004119:	b9 50 00 00 00       	mov    $0x50,%ecx

c000411e <put_char.cls>:
c000411e:	65 66 c7 03 20 07    	movw   $0x720,%gs:(%ebx)
c0004124:	83 c3 02             	add    $0x2,%ebx
c0004127:	e2 f5                	loop   c000411e <put_char.cls>
c0004129:	66 bb 80 07          	mov    $0x780,%bx

c000412d <put_char.set_cursor>:
c000412d:	66 ba d4 03          	mov    $0x3d4,%dx
c0004131:	b0 0e                	mov    $0xe,%al
c0004133:	ee                   	out    %al,(%dx)
c0004134:	66 ba d5 03          	mov    $0x3d5,%dx
c0004138:	88 f8                	mov    %bh,%al
c000413a:	ee                   	out    %al,(%dx)
c000413b:	66 ba d4 03          	mov    $0x3d4,%dx
c000413f:	b0 0f                	mov    $0xf,%al
c0004141:	ee                   	out    %al,(%dx)
c0004142:	66 ba d5 03          	mov    $0x3d5,%dx
c0004146:	88 d8                	mov    %bl,%al
c0004148:	ee                   	out    %al,(%dx)

c0004149 <put_char.put_char_done>:
c0004149:	61                   	popa   
c000414a:	c3                   	ret    

c000414b <put_int>:
c000414b:	60                   	pusha  
c000414c:	89 e5                	mov    %esp,%ebp
c000414e:	8b 45 24             	mov    0x24(%ebp),%eax
c0004151:	89 c2                	mov    %eax,%edx
c0004153:	bf 07 00 00 00       	mov    $0x7,%edi
c0004158:	b9 08 00 00 00       	mov    $0x8,%ecx
c000415d:	bb 0c 65 00 c0       	mov    $0xc000650c,%ebx

c0004162 <put_int.16based_4bits>:
c0004162:	83 e2 0f             	and    $0xf,%edx
c0004165:	83 fa 09             	cmp    $0x9,%edx
c0004168:	7f 05                	jg     c000416f <put_int.is_A2F>
c000416a:	83 c2 30             	add    $0x30,%edx
c000416d:	eb 06                	jmp    c0004175 <put_int.store>

c000416f <put_int.is_A2F>:
c000416f:	83 ea 0a             	sub    $0xa,%edx
c0004172:	83 c2 41             	add    $0x41,%edx

c0004175 <put_int.store>:
c0004175:	88 14 3b             	mov    %dl,(%ebx,%edi,1)
c0004178:	4f                   	dec    %edi
c0004179:	c1 e8 04             	shr    $0x4,%eax
c000417c:	89 c2                	mov    %eax,%edx
c000417e:	e2 e2                	loop   c0004162 <put_int.16based_4bits>

c0004180 <put_int.ready_to_print>:
c0004180:	47                   	inc    %edi

c0004181 <put_int.skip_prefix_0>:
c0004181:	83 ff 08             	cmp    $0x8,%edi
c0004184:	74 0f                	je     c0004195 <put_int.full0>

c0004186 <put_int.go_on_skip>:
c0004186:	8a 8f 0c 65 00 c0    	mov    -0x3fff9af4(%edi),%cl
c000418c:	47                   	inc    %edi
c000418d:	80 f9 30             	cmp    $0x30,%cl
c0004190:	74 ef                	je     c0004181 <put_int.skip_prefix_0>
c0004192:	4f                   	dec    %edi
c0004193:	eb 02                	jmp    c0004197 <put_int.put_each_num>

c0004195 <put_int.full0>:
c0004195:	b1 30                	mov    $0x30,%cl

c0004197 <put_int.put_each_num>:
c0004197:	51                   	push   %ecx
c0004198:	e8 e1 fe ff ff       	call   c000407e <put_char>
c000419d:	83 c4 04             	add    $0x4,%esp
c00041a0:	47                   	inc    %edi
c00041a1:	8a 8f 0c 65 00 c0    	mov    -0x3fff9af4(%edi),%cl
c00041a7:	83 ff 08             	cmp    $0x8,%edi
c00041aa:	7c eb                	jl     c0004197 <put_int.put_each_num>
c00041ac:	61                   	popa   
c00041ad:	c3                   	ret    

c00041ae <set_cursor>:
c00041ae:	60                   	pusha  
c00041af:	66 8b 5c 24 24       	mov    0x24(%esp),%bx
c00041b4:	66 ba d4 03          	mov    $0x3d4,%dx
c00041b8:	b0 0e                	mov    $0xe,%al
c00041ba:	ee                   	out    %al,(%dx)
c00041bb:	66 ba d5 03          	mov    $0x3d5,%dx
c00041bf:	88 f8                	mov    %bh,%al
c00041c1:	ee                   	out    %al,(%dx)
c00041c2:	66 ba d4 03          	mov    $0x3d4,%dx
c00041c6:	b0 0f                	mov    $0xf,%al
c00041c8:	ee                   	out    %al,(%dx)
c00041c9:	66 ba d5 03          	mov    $0x3d5,%dx
c00041cd:	88 d8                	mov    %bl,%al
c00041cf:	ee                   	out    %al,(%dx)
c00041d0:	61                   	popa   
c00041d1:	c3                   	ret    
c00041d2:	66 90                	xchg   %ax,%ax
c00041d4:	66 90                	xchg   %ax,%ax
c00041d6:	66 90                	xchg   %ax,%ax
c00041d8:	66 90                	xchg   %ax,%ax
c00041da:	66 90                	xchg   %ax,%ax
c00041dc:	66 90                	xchg   %ax,%ax
c00041de:	66 90                	xchg   %ax,%ax

c00041e0 <switch_to>:
c00041e0:	56                   	push   %esi
c00041e1:	57                   	push   %edi
c00041e2:	53                   	push   %ebx
c00041e3:	55                   	push   %ebp
c00041e4:	8b 44 24 14          	mov    0x14(%esp),%eax
c00041e8:	89 20                	mov    %esp,(%eax)
c00041ea:	8b 44 24 18          	mov    0x18(%esp),%eax
c00041ee:	8b 20                	mov    (%eax),%esp
c00041f0:	5d                   	pop    %ebp
c00041f1:	5b                   	pop    %ebx
c00041f2:	5f                   	pop    %edi
c00041f3:	5e                   	pop    %esi
c00041f4:	c3                   	ret    

c00041f5 <update_tss_esp>:
c00041f5:	55                   	push   %ebp
c00041f6:	89 e5                	mov    %esp,%ebp
c00041f8:	8b 45 08             	mov    0x8(%ebp),%eax
c00041fb:	05 00 10 00 00       	add    $0x1000,%eax
c0004200:	a3 44 69 00 c0       	mov    %eax,0xc0006944
c0004205:	90                   	nop
c0004206:	5d                   	pop    %ebp
c0004207:	c3                   	ret    

c0004208 <make_gdt_desc>:
c0004208:	55                   	push   %ebp
c0004209:	89 e5                	mov    %esp,%ebp
c000420b:	83 ec 18             	sub    $0x18,%esp
c000420e:	8b 55 14             	mov    0x14(%ebp),%edx
c0004211:	8b 45 18             	mov    0x18(%ebp),%eax
c0004214:	88 55 ec             	mov    %dl,-0x14(%ebp)
c0004217:	88 45 e8             	mov    %al,-0x18(%ebp)
c000421a:	8b 45 0c             	mov    0xc(%ebp),%eax
c000421d:	89 45 fc             	mov    %eax,-0x4(%ebp)
c0004220:	8b 45 10             	mov    0x10(%ebp),%eax
c0004223:	66 89 45 f4          	mov    %ax,-0xc(%ebp)
c0004227:	8b 45 fc             	mov    -0x4(%ebp),%eax
c000422a:	66 89 45 f6          	mov    %ax,-0xa(%ebp)
c000422e:	8b 45 fc             	mov    -0x4(%ebp),%eax
c0004231:	c1 e8 10             	shr    $0x10,%eax
c0004234:	88 45 f8             	mov    %al,-0x8(%ebp)
c0004237:	8a 45 ec             	mov    -0x14(%ebp),%al
c000423a:	88 45 f9             	mov    %al,-0x7(%ebp)
c000423d:	8b 45 10             	mov    0x10(%ebp),%eax
c0004240:	c1 e8 10             	shr    $0x10,%eax
c0004243:	83 e0 0f             	and    $0xf,%eax
c0004246:	88 c2                	mov    %al,%dl
c0004248:	8a 45 e8             	mov    -0x18(%ebp),%al
c000424b:	01 d0                	add    %edx,%eax
c000424d:	88 45 fa             	mov    %al,-0x6(%ebp)
c0004250:	8b 45 fc             	mov    -0x4(%ebp),%eax
c0004253:	c1 e8 18             	shr    $0x18,%eax
c0004256:	88 45 fb             	mov    %al,-0x5(%ebp)
c0004259:	8b 4d 08             	mov    0x8(%ebp),%ecx
c000425c:	8b 45 f4             	mov    -0xc(%ebp),%eax
c000425f:	8b 55 f8             	mov    -0x8(%ebp),%edx
c0004262:	89 01                	mov    %eax,(%ecx)
c0004264:	89 51 04             	mov    %edx,0x4(%ecx)
c0004267:	8b 45 08             	mov    0x8(%ebp),%eax
c000426a:	c9                   	leave  
c000426b:	c2 04 00             	ret    $0x4

c000426e <tss_init>:
c000426e:	55                   	push   %ebp
c000426f:	89 e5                	mov    %esp,%ebp
c0004271:	53                   	push   %ebx
c0004272:	83 ec 24             	sub    $0x24,%esp
c0004275:	83 ec 0c             	sub    $0xc,%esp
c0004278:	68 a0 52 00 c0       	push   $0xc00052a0
c000427d:	e8 de fd ff ff       	call   c0004060 <put_str>
c0004282:	83 c4 10             	add    $0x10,%esp
c0004285:	c7 45 f4 6c 00 00 00 	movl   $0x6c,-0xc(%ebp)
c000428c:	83 ec 04             	sub    $0x4,%esp
c000428f:	ff 75 f4             	push   -0xc(%ebp)
c0004292:	6a 00                	push   $0x0
c0004294:	68 40 69 00 c0       	push   $0xc0006940
c0004299:	e8 41 da ff ff       	call   c0001cdf <memset>
c000429e:	83 c4 10             	add    $0x10,%esp
c00042a1:	c7 05 48 69 00 c0 10 	movl   $0x10,0xc0006948
c00042a8:	00 00 00 
c00042ab:	8b 45 f4             	mov    -0xc(%ebp),%eax
c00042ae:	a3 a8 69 00 c0       	mov    %eax,0xc00069a8
c00042b3:	8b 45 f4             	mov    -0xc(%ebp),%eax
c00042b6:	8d 50 ff             	lea    -0x1(%eax),%edx
c00042b9:	bb 20 09 00 c0       	mov    $0xc0000920,%ebx
c00042be:	8d 45 e0             	lea    -0x20(%ebp),%eax
c00042c1:	83 ec 0c             	sub    $0xc,%esp
c00042c4:	68 80 00 00 00       	push   $0x80
c00042c9:	68 89 00 00 00       	push   $0x89
c00042ce:	52                   	push   %edx
c00042cf:	68 40 69 00 c0       	push   $0xc0006940
c00042d4:	50                   	push   %eax
c00042d5:	e8 2e ff ff ff       	call   c0004208 <make_gdt_desc>
c00042da:	83 c4 1c             	add    $0x1c,%esp
c00042dd:	8b 45 e0             	mov    -0x20(%ebp),%eax
c00042e0:	8b 55 e4             	mov    -0x1c(%ebp),%edx
c00042e3:	89 03                	mov    %eax,(%ebx)
c00042e5:	89 53 04             	mov    %edx,0x4(%ebx)
c00042e8:	bb 28 09 00 c0       	mov    $0xc0000928,%ebx
c00042ed:	8d 45 e0             	lea    -0x20(%ebp),%eax
c00042f0:	83 ec 0c             	sub    $0xc,%esp
c00042f3:	68 c0 00 00 00       	push   $0xc0
c00042f8:	68 f8 00 00 00       	push   $0xf8
c00042fd:	68 ff ff 0f 00       	push   $0xfffff
c0004302:	6a 00                	push   $0x0
c0004304:	50                   	push   %eax
c0004305:	e8 fe fe ff ff       	call   c0004208 <make_gdt_desc>
c000430a:	83 c4 1c             	add    $0x1c,%esp
c000430d:	8b 45 e0             	mov    -0x20(%ebp),%eax
c0004310:	8b 55 e4             	mov    -0x1c(%ebp),%edx
c0004313:	89 03                	mov    %eax,(%ebx)
c0004315:	89 53 04             	mov    %edx,0x4(%ebx)
c0004318:	bb 30 09 00 c0       	mov    $0xc0000930,%ebx
c000431d:	8d 45 e0             	lea    -0x20(%ebp),%eax
c0004320:	83 ec 0c             	sub    $0xc,%esp
c0004323:	68 c0 00 00 00       	push   $0xc0
c0004328:	68 f2 00 00 00       	push   $0xf2
c000432d:	68 ff ff 0f 00       	push   $0xfffff
c0004332:	6a 00                	push   $0x0
c0004334:	50                   	push   %eax
c0004335:	e8 ce fe ff ff       	call   c0004208 <make_gdt_desc>
c000433a:	83 c4 1c             	add    $0x1c,%esp
c000433d:	8b 45 e0             	mov    -0x20(%ebp),%eax
c0004340:	8b 55 e4             	mov    -0x1c(%ebp),%edx
c0004343:	89 03                	mov    %eax,(%ebx)
c0004345:	89 53 04             	mov    %edx,0x4(%ebx)
c0004348:	c7 45 e8 37 00 00 09 	movl   $0x9000037,-0x18(%ebp)
c000434f:	c7 45 ec 00 c0 00 00 	movl   $0xc000,-0x14(%ebp)
c0004356:	0f 01 55 e8          	lgdtl  -0x18(%ebp)
c000435a:	b8 20 00 00 00       	mov    $0x20,%eax
c000435f:	0f 00 d8             	ltr    %ax
c0004362:	83 ec 0c             	sub    $0xc,%esp
c0004365:	68 b0 52 00 c0       	push   $0xc00052b0
c000436a:	e8 f1 fc ff ff       	call   c0004060 <put_str>
c000436f:	83 c4 10             	add    $0x10,%esp
c0004372:	90                   	nop
c0004373:	8b 5d fc             	mov    -0x4(%ebp),%ebx
c0004376:	c9                   	leave  
c0004377:	c3                   	ret    

c0004378 <start_process>:
c0004378:	55                   	push   %ebp
c0004379:	89 e5                	mov    %esp,%ebp
c000437b:	83 ec 18             	sub    $0x18,%esp
c000437e:	8b 45 08             	mov    0x8(%ebp),%eax
c0004381:	89 45 f4             	mov    %eax,-0xc(%ebp)
c0004384:	e8 0b e7 ff ff       	call   c0002a94 <running_thread>
c0004389:	89 45 f0             	mov    %eax,-0x10(%ebp)
c000438c:	8b 45 f0             	mov    -0x10(%ebp),%eax
c000438f:	8b 00                	mov    (%eax),%eax
c0004391:	8d 90 80 00 00 00    	lea    0x80(%eax),%edx
c0004397:	8b 45 f0             	mov    -0x10(%ebp),%eax
c000439a:	89 10                	mov    %edx,(%eax)
c000439c:	8b 45 f0             	mov    -0x10(%ebp),%eax
c000439f:	8b 00                	mov    (%eax),%eax
c00043a1:	89 45 ec             	mov    %eax,-0x14(%ebp)
c00043a4:	8b 45 ec             	mov    -0x14(%ebp),%eax
c00043a7:	c7 40 10 00 00 00 00 	movl   $0x0,0x10(%eax)
c00043ae:	8b 45 ec             	mov    -0x14(%ebp),%eax
c00043b1:	8b 50 10             	mov    0x10(%eax),%edx
c00043b4:	8b 45 ec             	mov    -0x14(%ebp),%eax
c00043b7:	89 50 0c             	mov    %edx,0xc(%eax)
c00043ba:	8b 45 ec             	mov    -0x14(%ebp),%eax
c00043bd:	8b 50 0c             	mov    0xc(%eax),%edx
c00043c0:	8b 45 ec             	mov    -0x14(%ebp),%eax
c00043c3:	89 50 08             	mov    %edx,0x8(%eax)
c00043c6:	8b 45 ec             	mov    -0x14(%ebp),%eax
c00043c9:	8b 50 08             	mov    0x8(%eax),%edx
c00043cc:	8b 45 ec             	mov    -0x14(%ebp),%eax
c00043cf:	89 50 04             	mov    %edx,0x4(%eax)
c00043d2:	8b 45 ec             	mov    -0x14(%ebp),%eax
c00043d5:	c7 40 20 00 00 00 00 	movl   $0x0,0x20(%eax)
c00043dc:	8b 45 ec             	mov    -0x14(%ebp),%eax
c00043df:	8b 50 20             	mov    0x20(%eax),%edx
c00043e2:	8b 45 ec             	mov    -0x14(%ebp),%eax
c00043e5:	89 50 1c             	mov    %edx,0x1c(%eax)
c00043e8:	8b 45 ec             	mov    -0x14(%ebp),%eax
c00043eb:	8b 50 1c             	mov    0x1c(%eax),%edx
c00043ee:	8b 45 ec             	mov    -0x14(%ebp),%eax
c00043f1:	89 50 18             	mov    %edx,0x18(%eax)
c00043f4:	8b 45 ec             	mov    -0x14(%ebp),%eax
c00043f7:	8b 50 18             	mov    0x18(%eax),%edx
c00043fa:	8b 45 ec             	mov    -0x14(%ebp),%eax
c00043fd:	89 50 14             	mov    %edx,0x14(%eax)
c0004400:	8b 45 ec             	mov    -0x14(%ebp),%eax
c0004403:	c7 40 24 00 00 00 00 	movl   $0x0,0x24(%eax)
c000440a:	8b 45 ec             	mov    -0x14(%ebp),%eax
c000440d:	c7 40 28 33 00 00 00 	movl   $0x33,0x28(%eax)
c0004414:	8b 45 ec             	mov    -0x14(%ebp),%eax
c0004417:	8b 50 28             	mov    0x28(%eax),%edx
c000441a:	8b 45 ec             	mov    -0x14(%ebp),%eax
c000441d:	89 50 2c             	mov    %edx,0x2c(%eax)
c0004420:	8b 45 ec             	mov    -0x14(%ebp),%eax
c0004423:	8b 50 2c             	mov    0x2c(%eax),%edx
c0004426:	8b 45 ec             	mov    -0x14(%ebp),%eax
c0004429:	89 50 30             	mov    %edx,0x30(%eax)
c000442c:	8b 55 f4             	mov    -0xc(%ebp),%edx
c000442f:	8b 45 ec             	mov    -0x14(%ebp),%eax
c0004432:	89 50 38             	mov    %edx,0x38(%eax)
c0004435:	8b 45 ec             	mov    -0x14(%ebp),%eax
c0004438:	c7 40 3c 2b 00 00 00 	movl   $0x2b,0x3c(%eax)
c000443f:	8b 45 ec             	mov    -0x14(%ebp),%eax
c0004442:	c7 40 40 02 02 00 00 	movl   $0x202,0x40(%eax)
c0004449:	83 ec 08             	sub    $0x8,%esp
c000444c:	68 00 f0 ff bf       	push   $0xbffff000
c0004451:	6a 02                	push   $0x2
c0004453:	e8 74 e2 ff ff       	call   c00026cc <get_a_page>
c0004458:	83 c4 10             	add    $0x10,%esp
c000445b:	05 00 10 00 00       	add    $0x1000,%eax
c0004460:	89 c2                	mov    %eax,%edx
c0004462:	8b 45 ec             	mov    -0x14(%ebp),%eax
c0004465:	89 50 44             	mov    %edx,0x44(%eax)
c0004468:	8b 45 ec             	mov    -0x14(%ebp),%eax
c000446b:	c7 40 48 33 00 00 00 	movl   $0x33,0x48(%eax)
c0004472:	8b 65 ec             	mov    -0x14(%ebp),%esp
c0004475:	e9 a6 f6 ff ff       	jmp    c0003b20 <intr_exit>
c000447a:	90                   	nop
c000447b:	c9                   	leave  
c000447c:	c3                   	ret    

c000447d <page_dir_activate>:
c000447d:	55                   	push   %ebp
c000447e:	89 e5                	mov    %esp,%ebp
c0004480:	83 ec 18             	sub    $0x18,%esp
c0004483:	c7 45 f4 00 00 10 00 	movl   $0x100000,-0xc(%ebp)
c000448a:	8b 45 08             	mov    0x8(%ebp),%eax
c000448d:	8b 40 30             	mov    0x30(%eax),%eax
c0004490:	85 c0                	test   %eax,%eax
c0004492:	74 15                	je     c00044a9 <page_dir_activate+0x2c>
c0004494:	8b 45 08             	mov    0x8(%ebp),%eax
c0004497:	8b 40 30             	mov    0x30(%eax),%eax
c000449a:	83 ec 0c             	sub    $0xc,%esp
c000449d:	50                   	push   %eax
c000449e:	e8 87 e3 ff ff       	call   c000282a <addr_v2p>
c00044a3:	83 c4 10             	add    $0x10,%esp
c00044a6:	89 45 f4             	mov    %eax,-0xc(%ebp)
c00044a9:	8b 45 f4             	mov    -0xc(%ebp),%eax
c00044ac:	0f 22 d8             	mov    %eax,%cr3
c00044af:	90                   	nop
c00044b0:	c9                   	leave  
c00044b1:	c3                   	ret    

c00044b2 <process_activate>:
c00044b2:	55                   	push   %ebp
c00044b3:	89 e5                	mov    %esp,%ebp
c00044b5:	83 ec 08             	sub    $0x8,%esp
c00044b8:	83 7d 08 00          	cmpl   $0x0,0x8(%ebp)
c00044bc:	75 19                	jne    c00044d7 <process_activate+0x25>
c00044be:	68 c8 52 00 c0       	push   $0xc00052c8
c00044c3:	68 84 53 00 c0       	push   $0xc0005384
c00044c8:	6a 34                	push   $0x34
c00044ca:	68 d9 52 00 c0       	push   $0xc00052d9
c00044cf:	e8 35 d7 ff ff       	call   c0001c09 <panic_spin>
c00044d4:	83 c4 10             	add    $0x10,%esp
c00044d7:	83 ec 0c             	sub    $0xc,%esp
c00044da:	ff 75 08             	push   0x8(%ebp)
c00044dd:	e8 9b ff ff ff       	call   c000447d <page_dir_activate>
c00044e2:	83 c4 10             	add    $0x10,%esp
c00044e5:	8b 45 08             	mov    0x8(%ebp),%eax
c00044e8:	8b 40 30             	mov    0x30(%eax),%eax
c00044eb:	85 c0                	test   %eax,%eax
c00044ed:	74 0e                	je     c00044fd <process_activate+0x4b>
c00044ef:	83 ec 0c             	sub    $0xc,%esp
c00044f2:	ff 75 08             	push   0x8(%ebp)
c00044f5:	e8 fb fc ff ff       	call   c00041f5 <update_tss_esp>
c00044fa:	83 c4 10             	add    $0x10,%esp
c00044fd:	90                   	nop
c00044fe:	c9                   	leave  
c00044ff:	c3                   	ret    

c0004500 <create_page_dir>:
c0004500:	55                   	push   %ebp
c0004501:	89 e5                	mov    %esp,%ebp
c0004503:	83 ec 18             	sub    $0x18,%esp
c0004506:	83 ec 0c             	sub    $0xc,%esp
c0004509:	6a 01                	push   $0x1
c000450b:	e8 2c e1 ff ff       	call   c000263c <get_kernel_pages>
c0004510:	83 c4 10             	add    $0x10,%esp
c0004513:	89 45 f4             	mov    %eax,-0xc(%ebp)
c0004516:	83 7d f4 00          	cmpl   $0x0,-0xc(%ebp)
c000451a:	75 17                	jne    c0004533 <create_page_dir+0x33>
c000451c:	83 ec 0c             	sub    $0xc,%esp
c000451f:	68 ec 52 00 c0       	push   $0xc00052ec
c0004524:	e8 04 f0 ff ff       	call   c000352d <console_put_str>
c0004529:	83 c4 10             	add    $0x10,%esp
c000452c:	b8 00 00 00 00       	mov    $0x0,%eax
c0004531:	eb 43                	jmp    c0004576 <create_page_dir+0x76>
c0004533:	8b 45 f4             	mov    -0xc(%ebp),%eax
c0004536:	05 00 0c 00 00       	add    $0xc00,%eax
c000453b:	83 ec 04             	sub    $0x4,%esp
c000453e:	68 00 04 00 00       	push   $0x400
c0004543:	68 00 fc ff ff       	push   $0xfffffc00
c0004548:	50                   	push   %eax
c0004549:	e8 e3 d7 ff ff       	call   c0001d31 <memcpy>
c000454e:	83 c4 10             	add    $0x10,%esp
c0004551:	8b 45 f4             	mov    -0xc(%ebp),%eax
c0004554:	83 ec 0c             	sub    $0xc,%esp
c0004557:	50                   	push   %eax
c0004558:	e8 cd e2 ff ff       	call   c000282a <addr_v2p>
c000455d:	83 c4 10             	add    $0x10,%esp
c0004560:	89 45 f0             	mov    %eax,-0x10(%ebp)
c0004563:	8b 45 f4             	mov    -0xc(%ebp),%eax
c0004566:	05 fc 0f 00 00       	add    $0xffc,%eax
c000456b:	8b 55 f0             	mov    -0x10(%ebp),%edx
c000456e:	83 ca 07             	or     $0x7,%edx
c0004571:	89 10                	mov    %edx,(%eax)
c0004573:	8b 45 f4             	mov    -0xc(%ebp),%eax
c0004576:	c9                   	leave  
c0004577:	c3                   	ret    

c0004578 <create_user_vaddr_bitmap>:
c0004578:	55                   	push   %ebp
c0004579:	89 e5                	mov    %esp,%ebp
c000457b:	83 ec 18             	sub    $0x18,%esp
c000457e:	8b 45 08             	mov    0x8(%ebp),%eax
c0004581:	c7 40 3c 00 80 04 08 	movl   $0x8048000,0x3c(%eax)
c0004588:	c7 45 f4 17 00 00 00 	movl   $0x17,-0xc(%ebp)
c000458f:	83 ec 0c             	sub    $0xc,%esp
c0004592:	ff 75 f4             	push   -0xc(%ebp)
c0004595:	e8 a2 e0 ff ff       	call   c000263c <get_kernel_pages>
c000459a:	83 c4 10             	add    $0x10,%esp
c000459d:	8b 55 08             	mov    0x8(%ebp),%edx
c00045a0:	89 42 38             	mov    %eax,0x38(%edx)
c00045a3:	8b 45 08             	mov    0x8(%ebp),%eax
c00045a6:	c7 40 34 f7 6f 01 00 	movl   $0x16ff7,0x34(%eax)
c00045ad:	8b 45 08             	mov    0x8(%ebp),%eax
c00045b0:	83 c0 34             	add    $0x34,%eax
c00045b3:	83 ec 0c             	sub    $0xc,%esp
c00045b6:	50                   	push   %eax
c00045b7:	e8 ca da ff ff       	call   c0002086 <bitmap_init>
c00045bc:	83 c4 10             	add    $0x10,%esp
c00045bf:	90                   	nop
c00045c0:	c9                   	leave  
c00045c1:	c3                   	ret    

c00045c2 <process_execute>:
c00045c2:	55                   	push   %ebp
c00045c3:	89 e5                	mov    %esp,%ebp
c00045c5:	83 ec 18             	sub    $0x18,%esp
c00045c8:	83 ec 0c             	sub    $0xc,%esp
c00045cb:	6a 01                	push   $0x1
c00045cd:	e8 6a e0 ff ff       	call   c000263c <get_kernel_pages>
c00045d2:	83 c4 10             	add    $0x10,%esp
c00045d5:	89 45 f4             	mov    %eax,-0xc(%ebp)
c00045d8:	83 ec 04             	sub    $0x4,%esp
c00045db:	6a 1f                	push   $0x1f
c00045dd:	ff 75 0c             	push   0xc(%ebp)
c00045e0:	ff 75 f4             	push   -0xc(%ebp)
c00045e3:	e8 54 e5 ff ff       	call   c0002b3c <init_thread>
c00045e8:	83 c4 10             	add    $0x10,%esp
c00045eb:	83 ec 0c             	sub    $0xc,%esp
c00045ee:	ff 75 f4             	push   -0xc(%ebp)
c00045f1:	e8 82 ff ff ff       	call   c0004578 <create_user_vaddr_bitmap>
c00045f6:	83 c4 10             	add    $0x10,%esp
c00045f9:	83 ec 04             	sub    $0x4,%esp
c00045fc:	ff 75 08             	push   0x8(%ebp)
c00045ff:	68 78 43 00 c0       	push   $0xc0004378
c0004604:	ff 75 f4             	push   -0xc(%ebp)
c0004607:	e8 b9 e4 ff ff       	call   c0002ac5 <thread_create>
c000460c:	83 c4 10             	add    $0x10,%esp
c000460f:	e8 ec fe ff ff       	call   c0004500 <create_page_dir>
c0004614:	8b 55 f4             	mov    -0xc(%ebp),%edx
c0004617:	89 42 30             	mov    %eax,0x30(%edx)
c000461a:	e8 90 d3 ff ff       	call   c00019af <intr_disable>
c000461f:	89 45 f0             	mov    %eax,-0x10(%ebp)
c0004622:	8b 45 f4             	mov    -0xc(%ebp),%eax
c0004625:	83 c0 20             	add    $0x20,%eax
c0004628:	83 ec 08             	sub    $0x8,%esp
c000462b:	50                   	push   %eax
c000462c:	68 dc 68 00 c0       	push   $0xc00068dc
c0004631:	e8 bd ea ff ff       	call   c00030f3 <elem_find>
c0004636:	83 c4 10             	add    $0x10,%esp
c0004639:	85 c0                	test   %eax,%eax
c000463b:	74 19                	je     c0004656 <process_execute+0x94>
c000463d:	68 18 53 00 c0       	push   $0xc0005318
c0004642:	68 98 53 00 c0       	push   $0xc0005398
c0004647:	6a 67                	push   $0x67
c0004649:	68 d9 52 00 c0       	push   $0xc00052d9
c000464e:	e8 b6 d5 ff ff       	call   c0001c09 <panic_spin>
c0004653:	83 c4 10             	add    $0x10,%esp
c0004656:	8b 45 f4             	mov    -0xc(%ebp),%eax
c0004659:	83 c0 20             	add    $0x20,%eax
c000465c:	83 ec 08             	sub    $0x8,%esp
c000465f:	50                   	push   %eax
c0004660:	68 dc 68 00 c0       	push   $0xc00068dc
c0004665:	e8 0f ea ff ff       	call   c0003079 <list_append>
c000466a:	83 c4 10             	add    $0x10,%esp
c000466d:	8b 45 f4             	mov    -0xc(%ebp),%eax
c0004670:	83 c0 28             	add    $0x28,%eax
c0004673:	83 ec 08             	sub    $0x8,%esp
c0004676:	50                   	push   %eax
c0004677:	68 ec 68 00 c0       	push   $0xc00068ec
c000467c:	e8 72 ea ff ff       	call   c00030f3 <elem_find>
c0004681:	83 c4 10             	add    $0x10,%esp
c0004684:	85 c0                	test   %eax,%eax
c0004686:	74 19                	je     c00046a1 <process_execute+0xdf>
c0004688:	68 50 53 00 c0       	push   $0xc0005350
c000468d:	68 98 53 00 c0       	push   $0xc0005398
c0004692:	6a 6a                	push   $0x6a
c0004694:	68 d9 52 00 c0       	push   $0xc00052d9
c0004699:	e8 6b d5 ff ff       	call   c0001c09 <panic_spin>
c000469e:	83 c4 10             	add    $0x10,%esp
c00046a1:	8b 45 f4             	mov    -0xc(%ebp),%eax
c00046a4:	83 c0 28             	add    $0x28,%eax
c00046a7:	83 ec 08             	sub    $0x8,%esp
c00046aa:	50                   	push   %eax
c00046ab:	68 ec 68 00 c0       	push   $0xc00068ec
c00046b0:	e8 c4 e9 ff ff       	call   c0003079 <list_append>
c00046b5:	83 c4 10             	add    $0x10,%esp
c00046b8:	83 ec 0c             	sub    $0xc,%esp
c00046bb:	ff 75 f0             	push   -0x10(%ebp)
c00046be:	e8 15 d3 ff ff       	call   c00019d8 <intr_set_status>
c00046c3:	83 c4 10             	add    $0x10,%esp
c00046c6:	90                   	nop
c00046c7:	c9                   	leave  
c00046c8:	c3                   	ret    
